gpasm-1.5.0 #1285 (Sep 12 2016) obj\Release\m   8-6-2020  15:31:05          PAGE  1


LOC    OBJECT CODE    LINE  SOURCE TEXT
  VALUE

                      00001 ;--------------------------------------------------------
                      00002 ; File Created by SDCC : free open source ANSI-C Compiler
                      00003 ; Version 4.0.0 #11528 (MINGW64)
                      00004 ;--------------------------------------------------------
                      00005 ; PIC port for the 14-bit core
                      00006 ;--------------------------------------------------------
                      00007 ;       .file   "main.c"
                      00008         list    p=16f877a
                      00009         radix dec
                      00010         include "p16f877a.inc"
                      00001         LIST
                      00002 
                      00003 ;==========================================================================
                      00004 ; Build date : Oct 21 2015
                      00005 ;  MPASM PIC16F877A processor include
                      00006 ; 
                      00007 ;  (c) Copyright 1999-2015 Microchip Technology, All rights reserved
                      00008 ;==========================================================================
                      00009 
                      00567         LIST
                      00011 ;--------------------------------------------------------
                      00012 ; config word(s)
                      00013 ;--------------------------------------------------------
2007   0000           00014         __config 0x3f32
                      00015 ;--------------------------------------------------------
                      00016 ; external declarations
                      00017 ;--------------------------------------------------------
  0000                00018         extern  _DIG_CLK_init
  0000                00019         extern  _hour_init
  0000                00020         extern  _minutes_init
  0000                00021         extern  _PB_Init
  0000                00022         extern  _SSD_Init
  0000                00023         extern  _TMR0_Start
  0000                00024         extern  _TMR0_Init
  0000                00025         extern  __sdcc_gsinit_startup
                      00026 ;--------------------------------------------------------
                      00027 ; global declarations
                      00028 ;--------------------------------------------------------
  0000                00029         global  _main
                      00030 
  0000                00031         global PSAVE
  0000                00032         global SSAVE
  0000                00033         global WSAVE
  0000                00034         global STK12
  0000                00035         global STK11
  0000                00036         global STK10
  0000                00037         global STK09
  0000                00038         global STK08
  0000                00039         global STK07
  0000                00040         global STK06
  0000                00041         global STK05
  0000                00042         global STK04
  0000                00043         global STK03
gpasm-1.5.0 #1285 (Sep 12 2016) obj\Release\m   8-6-2020  15:31:05          PAGE  2


LOC    OBJECT CODE    LINE  SOURCE TEXT
  VALUE

  0000                00044         global STK02
  0000                00045         global STK01
  0000                00046         global STK00
                      00047 
                      00048 sharebank udata_ovr 0x0070
0070                  00049 PSAVE   res 1
0071                  00050 SSAVE   res 1
0072                  00051 WSAVE   res 1
0073                  00052 STK12   res 1
0074                  00053 STK11   res 1
0075                  00054 STK10   res 1
0076                  00055 STK09   res 1
0077                  00056 STK08   res 1
0078                  00057 STK07   res 1
0079                  00058 STK06   res 1
007A                  00059 STK05   res 1
007B                  00060 STK04   res 1
007C                  00061 STK03   res 1
007D                  00062 STK02   res 1
007E                  00063 STK01   res 1
007F                  00064 STK00   res 1
                      00065 
                      00066 ;--------------------------------------------------------
                      00067 ; global definitions
                      00068 ;--------------------------------------------------------
                      00069 ;--------------------------------------------------------
                      00070 ; absolute symbol definitions
                      00071 ;--------------------------------------------------------
                      00072 ;--------------------------------------------------------
                      00073 ; compiler-defined variables
                      00074 ;--------------------------------------------------------
                      00075 ;--------------------------------------------------------
                      00076 ; initialized data
                      00077 ;--------------------------------------------------------
                      00078 ;--------------------------------------------------------
                      00079 ; initialized absolute data
                      00080 ;--------------------------------------------------------
                      00081 ;--------------------------------------------------------
                      00082 ; overlayable items in internal ram 
                      00083 ;--------------------------------------------------------
                      00084 ;       udata_ovr
                      00085 ;--------------------------------------------------------
                      00086 ; reset vector 
                      00087 ;--------------------------------------------------------
                      00088 STARTUP code 0x0000
0000   0000           00089         nop
0001   0??? 0???      00090         pagesel __sdcc_gsinit_startup
0003   2???           00091         goto    __sdcc_gsinit_startup
                      00092 ;--------------------------------------------------------
                      00093 ; code
                      00094 ;--------------------------------------------------------
                      00095 code_main       code
                      00096 ;***
gpasm-1.5.0 #1285 (Sep 12 2016) obj\Release\m   8-6-2020  15:31:05          PAGE  3


LOC    OBJECT CODE    LINE  SOURCE TEXT
  VALUE

                      00097 ;  pBlock Stats: dbName = M
                      00098 ;***
                      00099 ;has an exit
                      00100 ;functions called:
                      00101 ;   _PB_Init
                      00102 ;   _PB_Init
                      00103 ;   _PB_Init
                      00104 ;   _SSD_Init
                      00105 ;   _SSD_Init
                      00106 ;   _SSD_Init
                      00107 ;   _SSD_Init
                      00108 ;   _DIG_CLK_init
                      00109 ;   _hour_init
                      00110 ;   _minutes_init
                      00111 ;   _TMR0_Init
                      00112 ;   _TMR0_Start
                      00113 ;   _PB_Init
                      00114 ;   _PB_Init
                      00115 ;   _PB_Init
                      00116 ;   _SSD_Init
                      00117 ;   _SSD_Init
                      00118 ;   _SSD_Init
                      00119 ;   _SSD_Init
                      00120 ;   _DIG_CLK_init
                      00121 ;   _hour_init
                      00122 ;   _minutes_init
                      00123 ;   _TMR0_Init
                      00124 ;   _TMR0_Start
                      00125 ;2 compiler assigned registers:
                      00126 ;   STK00
                      00127 ;   STK01
                      00128 ;; Starting pCode block
                      00129 S_main__main    code
0000                  00130 _main:
                      00131 ; 2 exit points
                      00132 ;       .line   17; "main.c"    PB_Init(PB_MINUS ,   PB_RELEASED);
0000   3000           00133         MOVLW   0x00
0001   00??           00134         MOVWF   STK00
0002   3001           00135         MOVLW   0x01
0003   0??? 0???      00136         PAGESEL _PB_Init
0005   2???           00137         CALL    _PB_Init
0006   0??? 0???      00138         PAGESEL $
                      00139 ;       .line   18; "main.c"    PB_Init(PB_PLUS  ,   PB_RELEASED);
0008   3000           00140         MOVLW   0x00
0009   00??           00141         MOVWF   STK00
000A   3000           00142         MOVLW   0x00
000B   0??? 0???      00143         PAGESEL _PB_Init
000D   2???           00144         CALL    _PB_Init
000E   0??? 0???      00145         PAGESEL $
                      00146 ;       .line   19; "main.c"    PB_Init(PB_SET   ,   PB_RELEASED);
0010   3000           00147         MOVLW   0x00
0011   00??           00148         MOVWF   STK00
0012   3002           00149         MOVLW   0x02
gpasm-1.5.0 #1285 (Sep 12 2016) obj\Release\m   8-6-2020  15:31:05          PAGE  4


LOC    OBJECT CODE    LINE  SOURCE TEXT
  VALUE

0013   0??? 0???      00150         PAGESEL _PB_Init
0015   2???           00151         CALL    _PB_Init
0016   0??? 0???      00152         PAGESEL $
                      00153 ;       .line   23; "main.c"    SSD_Init( SSD_L  , SSD_OFF  ,    SSD_NULL);
0018   300A           00154         MOVLW   0x0a
0019   00??           00155         MOVWF   STK01
001A   3000           00156         MOVLW   0x00
001B   00??           00157         MOVWF   STK00
001C   3000           00158         MOVLW   0x00
001D   0??? 0???      00159         PAGESEL _SSD_Init
001F   2???           00160         CALL    _SSD_Init
0020   0??? 0???      00161         PAGESEL $
                      00162 ;       .line   24; "main.c"    SSD_Init( SSD_R  , SSD_OFF  ,    SSD_NULL);
0022   300A           00163         MOVLW   0x0a
0023   00??           00164         MOVWF   STK01
0024   3000           00165         MOVLW   0x00
0025   00??           00166         MOVWF   STK00
0026   3003           00167         MOVLW   0x03
0027   0??? 0???      00168         PAGESEL _SSD_Init
0029   2???           00169         CALL    _SSD_Init
002A   0??? 0???      00170         PAGESEL $
                      00171 ;       .line   25; "main.c"    SSD_Init( SSD_M  , SSD_OFF  ,    SSD_NULL);
002C   300A           00172         MOVLW   0x0a
002D   00??           00173         MOVWF   STK01
002E   3000           00174         MOVLW   0x00
002F   00??           00175         MOVWF   STK00
0030   3001           00176         MOVLW   0x01
0031   0??? 0???      00177         PAGESEL _SSD_Init
0033   2???           00178         CALL    _SSD_Init
0034   0??? 0???      00179         PAGESEL $
                      00180 ;       .line   26; "main.c"    SSD_Init( SSD_N  , SSD_OFF  ,    SSD_NULL);
0036   300A           00181         MOVLW   0x0a
0037   00??           00182         MOVWF   STK01
0038   3000           00183         MOVLW   0x00
0039   00??           00184         MOVWF   STK00
003A   3002           00185         MOVLW   0x02
003B   0??? 0???      00186         PAGESEL _SSD_Init
003D   2???           00187         CALL    _SSD_Init
003E   0??? 0???      00188         PAGESEL $
                      00189 ;       .line   29; "main.c"    DIG_CLK_init(normal);
0040   3000           00190         MOVLW   0x00
0041   0??? 0???      00191         PAGESEL _DIG_CLK_init
0043   2???           00192         CALL    _DIG_CLK_init
0044   0??? 0???      00193         PAGESEL $
                      00194 ;       .line   30; "main.c"    hour_init(20);
0046   3014           00195         MOVLW   0x14
0047   0??? 0???      00196         PAGESEL _hour_init
0049   2???           00197         CALL    _hour_init
004A   0??? 0???      00198         PAGESEL $
                      00199 ;       .line   31; "main.c"    minutes_init(40);
004C   3028           00200         MOVLW   0x28
004D   0??? 0???      00201         PAGESEL _minutes_init
004F   2???           00202         CALL    _minutes_init
gpasm-1.5.0 #1285 (Sep 12 2016) obj\Release\m   8-6-2020  15:31:05          PAGE  5


LOC    OBJECT CODE    LINE  SOURCE TEXT
  VALUE

0050   0??? 0???      00203         PAGESEL $
                      00204 ;       .line   33; "main.c"    TMR0_Init();
0052   0??? 0???      00205         PAGESEL _TMR0_Init
0054   2???           00206         CALL    _TMR0_Init
0055   0??? 0???      00207         PAGESEL $
                      00208 ;       .line   34; "main.c"    TMR0_Start();
0057   0??? 0???      00209         PAGESEL _TMR0_Start
0059   2???           00210         CALL    _TMR0_Start
005A   0??? 0???      00211         PAGESEL $
005C                  00212 _00106_DS_:
                      00213 ;       .line   38; "main.c"    while(1)
005C   2???           00214         GOTO    _00106_DS_
                      00215 ;       .line   44; "main.c"    }
005D   0008           00216         RETURN  
                      00217 ; exit point of _main
                      00218 
                      00219 
                      00220 ;       code size estimation:
                      00221 ;          46+   24 =    70 instructions (  188 byte)
                      00222 
                      00223         end
gpasm-1.5.0 #1285 (Sep 12 2016) obj\Release\m   8-6-2020  15:31:05          PAGE  6


SYMBOL TABLE
  LABEL                              TYPE        VALUE         VALUE          VALUE
                                                 (hex)         (dec)          (text)

ACKDT                             CONSTANT      00000005              5
ACKEN                             CONSTANT      00000004              4
ACKSTAT                           CONSTANT      00000006              6
ADCON0                            CONSTANT      0000001F             31
ADCON1                            CONSTANT      0000009F            159
ADCS0                             CONSTANT      00000006              6
ADCS1                             CONSTANT      00000007              7
ADCS2                             CONSTANT      00000006              6
ADDEN                             CONSTANT      00000003              3
ADFM                              CONSTANT      00000007              7
ADIE                              CONSTANT      00000006              6
ADIF                              CONSTANT      00000006              6
ADON                              CONSTANT      00000000              0
ADRESH                            CONSTANT      0000001E             30
ADRESL                            CONSTANT      0000009E            158
BCLIE                             CONSTANT      00000003              3
BCLIF                             CONSTANT      00000003              3
BF                                CONSTANT      00000000              0
BRGH                              CONSTANT      00000002              2
C                                 CONSTANT      00000000              0
C1INV                             CONSTANT      00000004              4
C1OUT                             CONSTANT      00000006              6
C2INV                             CONSTANT      00000005              5
C2OUT                             CONSTANT      00000007              7
CCP1CON                           CONSTANT      00000017             23
CCP1IE                            CONSTANT      00000002              2
CCP1IF                            CONSTANT      00000002              2
CCP1M0                            CONSTANT      00000000              0
CCP1M1                            CONSTANT      00000001              1
CCP1M2                            CONSTANT      00000002              2
CCP1M3                            CONSTANT      00000003              3
CCP1X                             CONSTANT      00000005              5
CCP1Y                             CONSTANT      00000004              4
CCP2CON                           CONSTANT      0000001D             29
CCP2IE                            CONSTANT      00000000              0
CCP2IF                            CONSTANT      00000000              0
CCP2M0                            CONSTANT      00000000              0
CCP2M1                            CONSTANT      00000001              1
CCP2M2                            CONSTANT      00000002              2
CCP2M3                            CONSTANT      00000003              3
CCP2X                             CONSTANT      00000005              5
CCP2Y                             CONSTANT      00000004              4
CCPR1                             CONSTANT      00000015             21
CCPR1H                            CONSTANT      00000016             22
CCPR1L                            CONSTANT      00000015             21
CCPR2                             CONSTANT      0000001B             27
CCPR2H                            CONSTANT      0000001C             28
CCPR2L                            CONSTANT      0000001B             27
CHS0                              CONSTANT      00000003              3
CHS1                              CONSTANT      00000004              4
CHS2                              CONSTANT      00000005              5
CIS                               CONSTANT      00000003              3
gpasm-1.5.0 #1285 (Sep 12 2016) obj\Release\m   8-6-2020  15:31:05          PAGE  7


SYMBOL TABLE
  LABEL                              TYPE        VALUE         VALUE          VALUE
                                                 (hex)         (dec)          (text)

CKE                               CONSTANT      00000006              6
CKP                               CONSTANT      00000004              4
CM0                               CONSTANT      00000000              0
CM1                               CONSTANT      00000001              1
CM2                               CONSTANT      00000002              2
CMCON                             CONSTANT      0000009C            156
CMIE                              CONSTANT      00000006              6
CMIF                              CONSTANT      00000006              6
CREN                              CONSTANT      00000004              4
CSRC                              CONSTANT      00000007              7
CVR0                              CONSTANT      00000000              0
CVR1                              CONSTANT      00000001              1
CVR2                              CONSTANT      00000002              2
CVR3                              CONSTANT      00000003              3
CVRCON                            CONSTANT      0000009D            157
CVREN                             CONSTANT      00000007              7
CVROE                             CONSTANT      00000006              6
CVRR                              CONSTANT      00000005              5
D                                 CONSTANT      00000005              5
DATA_ADDRESS                      CONSTANT      00000005              5
DC                                CONSTANT      00000001              1
D_A                               CONSTANT      00000005              5
D_NOT_A                           CONSTANT      00000005              5
EEADR                             CONSTANT      0000010D            269
EEADRH                            CONSTANT      0000010F            271
EECON1                            CONSTANT      0000018C            396
EECON2                            CONSTANT      0000018D            397
EEDATA                            CONSTANT      0000010C            268
EEDATH                            CONSTANT      0000010E            270
EEIE                              CONSTANT      00000004              4
EEIF                              CONSTANT      00000004              4
EEPGD                             CONSTANT      00000007              7
F                                 CONSTANT      00000001              1
FERR                              CONSTANT      00000002              2
FSR                               CONSTANT      00000004              4
GCEN                              CONSTANT      00000007              7
GIE                               CONSTANT      00000007              7
GO                                CONSTANT      00000002              2
GO_DONE                           CONSTANT      00000002              2
GO_NOT_DONE                       CONSTANT      00000002              2
I2C_DATA                          CONSTANT      00000005              5
I2C_READ                          CONSTANT      00000002              2
I2C_START                         CONSTANT      00000003              3
I2C_STOP                          CONSTANT      00000004              4
IBF                               CONSTANT      00000007              7
IBOV                              CONSTANT      00000005              5
INDF                              CONSTANT      00000000              0
INTCON                            CONSTANT      0000000B             11
INTE                              CONSTANT      00000004              4
INTEDG                            CONSTANT      00000006              6
INTF                              CONSTANT      00000001              1
IRP                               CONSTANT      00000007              7
gpasm-1.5.0 #1285 (Sep 12 2016) obj\Release\m   8-6-2020  15:31:05          PAGE  8


SYMBOL TABLE
  LABEL                              TYPE        VALUE         VALUE          VALUE
                                                 (hex)         (dec)          (text)

NOT_A                             CONSTANT      00000005              5
NOT_ADDRESS                       CONSTANT      00000005              5
NOT_BO                            CONSTANT      00000000              0
NOT_BOR                           CONSTANT      00000000              0
NOT_DONE                          CONSTANT      00000002              2
NOT_PD                            CONSTANT      00000003              3
NOT_POR                           CONSTANT      00000001              1
NOT_RBPU                          CONSTANT      00000007              7
NOT_RC8                           CONSTANT      00000006              6
NOT_T1SYNC                        CONSTANT      00000002              2
NOT_TO                            CONSTANT      00000004              4
NOT_TX8                           CONSTANT      00000006              6
NOT_W                             CONSTANT      00000002              2
NOT_WRITE                         CONSTANT      00000002              2
OBF                               CONSTANT      00000006              6
OERR                              CONSTANT      00000001              1
OPTION_REG                        CONSTANT      00000081            129
P                                 CONSTANT      00000004              4
PCFG0                             CONSTANT      00000000              0
PCFG1                             CONSTANT      00000001              1
PCFG2                             CONSTANT      00000002              2
PCFG3                             CONSTANT      00000003              3
PCL                               CONSTANT      00000002              2
PCLATH                            CONSTANT      0000000A             10
PCON                              CONSTANT      0000008E            142
PEIE                              CONSTANT      00000006              6
PEN                               CONSTANT      00000002              2
PIE1                              CONSTANT      0000008C            140
PIE2                              CONSTANT      0000008D            141
PIR1                              CONSTANT      0000000C             12
PIR2                              CONSTANT      0000000D             13
PORTA                             CONSTANT      00000005              5
PORTB                             CONSTANT      00000006              6
PORTC                             CONSTANT      00000007              7
PORTD                             CONSTANT      00000008              8
PORTE                             CONSTANT      00000009              9
PR2                               CONSTANT      00000092            146
PS0                               CONSTANT      00000000              0
PS1                               CONSTANT      00000001              1
PS2                               CONSTANT      00000002              2
PSA                               CONSTANT      00000003              3
PSAVE                             GLOBAL        00000070            112
PSPIE                             CONSTANT      00000007              7
PSPIF                             CONSTANT      00000007              7
PSPMODE                           CONSTANT      00000004              4
R                                 CONSTANT      00000002              2
RA0                               CONSTANT      00000000              0
RA1                               CONSTANT      00000001              1
RA2                               CONSTANT      00000002              2
RA3                               CONSTANT      00000003              3
RA4                               CONSTANT      00000004              4
RA5                               CONSTANT      00000005              5
gpasm-1.5.0 #1285 (Sep 12 2016) obj\Release\m   8-6-2020  15:31:05          PAGE  9


SYMBOL TABLE
  LABEL                              TYPE        VALUE         VALUE          VALUE
                                                 (hex)         (dec)          (text)

RB0                               CONSTANT      00000000              0
RB1                               CONSTANT      00000001              1
RB2                               CONSTANT      00000002              2
RB3                               CONSTANT      00000003              3
RB4                               CONSTANT      00000004              4
RB5                               CONSTANT      00000005              5
RB6                               CONSTANT      00000006              6
RB7                               CONSTANT      00000007              7
RBIE                              CONSTANT      00000003              3
RBIF                              CONSTANT      00000000              0
RC0                               CONSTANT      00000000              0
RC1                               CONSTANT      00000001              1
RC2                               CONSTANT      00000002              2
RC3                               CONSTANT      00000003              3
RC4                               CONSTANT      00000004              4
RC5                               CONSTANT      00000005              5
RC6                               CONSTANT      00000006              6
RC7                               CONSTANT      00000007              7
RC8_9                             CONSTANT      00000006              6
RC9                               CONSTANT      00000006              6
RCD8                              CONSTANT      00000000              0
RCEN                              CONSTANT      00000003              3
RCIE                              CONSTANT      00000005              5
RCIF                              CONSTANT      00000005              5
RCREG                             CONSTANT      0000001A             26
RCSTA                             CONSTANT      00000018             24
RD                                CONSTANT      00000000              0
RD0                               CONSTANT      00000000              0
RD1                               CONSTANT      00000001              1
RD2                               CONSTANT      00000002              2
RD3                               CONSTANT      00000003              3
RD4                               CONSTANT      00000004              4
RD5                               CONSTANT      00000005              5
RD6                               CONSTANT      00000006              6
RD7                               CONSTANT      00000007              7
RE0                               CONSTANT      00000000              0
RE1                               CONSTANT      00000001              1
RE2                               CONSTANT      00000002              2
READ_WRITE                        CONSTANT      00000002              2
RP0                               CONSTANT      00000005              5
RP1                               CONSTANT      00000006              6
RSEN                              CONSTANT      00000001              1
RX9                               CONSTANT      00000006              6
RX9D                              CONSTANT      00000000              0
R_NOT_W                           CONSTANT      00000002              2
R_W                               CONSTANT      00000002              2
S                                 CONSTANT      00000003              3
SEN                               CONSTANT      00000000              0
SMP                               CONSTANT      00000007              7
SPBRG                             CONSTANT      00000099            153
SPEN                              CONSTANT      00000007              7
SREN                              CONSTANT      00000005              5
gpasm-1.5.0 #1285 (Sep 12 2016) obj\Release\m   8-6-2020  15:31:05          PAGE 10


SYMBOL TABLE
  LABEL                              TYPE        VALUE         VALUE          VALUE
                                                 (hex)         (dec)          (text)

SSAVE                             GLOBAL        00000071            113
SSPADD                            CONSTANT      00000093            147
SSPBUF                            CONSTANT      00000013             19
SSPCON                            CONSTANT      00000014             20
SSPCON2                           CONSTANT      00000091            145
SSPEN                             CONSTANT      00000005              5
SSPIE                             CONSTANT      00000003              3
SSPIF                             CONSTANT      00000003              3
SSPM0                             CONSTANT      00000000              0
SSPM1                             CONSTANT      00000001              1
SSPM2                             CONSTANT      00000002              2
SSPM3                             CONSTANT      00000003              3
SSPOV                             CONSTANT      00000006              6
SSPSTAT                           CONSTANT      00000094            148
STATUS                            CONSTANT      00000003              3
STK00                             GLOBAL        0000007F            127
STK01                             GLOBAL        0000007E            126
STK02                             GLOBAL        0000007D            125
STK03                             GLOBAL        0000007C            124
STK04                             GLOBAL        0000007B            123
STK05                             GLOBAL        0000007A            122
STK06                             GLOBAL        00000079            121
STK07                             GLOBAL        00000078            120
STK08                             GLOBAL        00000077            119
STK09                             GLOBAL        00000076            118
STK10                             GLOBAL        00000075            117
STK11                             GLOBAL        00000074            116
STK12                             GLOBAL        00000073            115
SYNC                              CONSTANT      00000004              4
T0CS                              CONSTANT      00000005              5
T0IE                              CONSTANT      00000005              5
T0IF                              CONSTANT      00000002              2
T0SE                              CONSTANT      00000004              4
T1CKPS0                           CONSTANT      00000004              4
T1CKPS1                           CONSTANT      00000005              5
T1CON                             CONSTANT      00000010             16
T1INSYNC                          CONSTANT      00000002              2
T1OSCEN                           CONSTANT      00000003              3
T1SYNC                            CONSTANT      00000002              2
T2CKPS0                           CONSTANT      00000000              0
T2CKPS1                           CONSTANT      00000001              1
T2CON                             CONSTANT      00000012             18
TMR0                              CONSTANT      00000001              1
TMR0IE                            CONSTANT      00000005              5
TMR0IF                            CONSTANT      00000002              2
TMR1                              CONSTANT      0000000E             14
TMR1CS                            CONSTANT      00000001              1
TMR1H                             CONSTANT      0000000F             15
TMR1IE                            CONSTANT      00000000              0
TMR1IF                            CONSTANT      00000000              0
TMR1L                             CONSTANT      0000000E             14
TMR1ON                            CONSTANT      00000000              0
gpasm-1.5.0 #1285 (Sep 12 2016) obj\Release\m   8-6-2020  15:31:05          PAGE 11


SYMBOL TABLE
  LABEL                              TYPE        VALUE         VALUE          VALUE
                                                 (hex)         (dec)          (text)

TMR2                              CONSTANT      00000011             17
TMR2IE                            CONSTANT      00000001              1
TMR2IF                            CONSTANT      00000001              1
TMR2ON                            CONSTANT      00000002              2
TOUTPS0                           CONSTANT      00000003              3
TOUTPS1                           CONSTANT      00000004              4
TOUTPS2                           CONSTANT      00000005              5
TOUTPS3                           CONSTANT      00000006              6
TRISA                             CONSTANT      00000085            133
TRISA0                            CONSTANT      00000000              0
TRISA1                            CONSTANT      00000001              1
TRISA2                            CONSTANT      00000002              2
TRISA3                            CONSTANT      00000003              3
TRISA4                            CONSTANT      00000004              4
TRISA5                            CONSTANT      00000005              5
TRISB                             CONSTANT      00000086            134
TRISB0                            CONSTANT      00000000              0
TRISB1                            CONSTANT      00000001              1
TRISB2                            CONSTANT      00000002              2
TRISB3                            CONSTANT      00000003              3
TRISB4                            CONSTANT      00000004              4
TRISB5                            CONSTANT      00000005              5
TRISB6                            CONSTANT      00000006              6
TRISB7                            CONSTANT      00000007              7
TRISC                             CONSTANT      00000087            135
TRISC0                            CONSTANT      00000000              0
TRISC1                            CONSTANT      00000001              1
TRISC2                            CONSTANT      00000002              2
TRISC3                            CONSTANT      00000003              3
TRISC4                            CONSTANT      00000004              4
TRISC5                            CONSTANT      00000005              5
TRISC6                            CONSTANT      00000006              6
TRISC7                            CONSTANT      00000007              7
TRISD                             CONSTANT      00000088            136
TRISD0                            CONSTANT      00000000              0
TRISD1                            CONSTANT      00000001              1
TRISD2                            CONSTANT      00000002              2
TRISD3                            CONSTANT      00000003              3
TRISD4                            CONSTANT      00000004              4
TRISD5                            CONSTANT      00000005              5
TRISD6                            CONSTANT      00000006              6
TRISD7                            CONSTANT      00000007              7
TRISE                             CONSTANT      00000089            137
TRISE0                            CONSTANT      00000000              0
TRISE1                            CONSTANT      00000001              1
TRISE2                            CONSTANT      00000002              2
TRMT                              CONSTANT      00000001              1
TX8_9                             CONSTANT      00000006              6
TX9                               CONSTANT      00000006              6
TX9D                              CONSTANT      00000000              0
TXD8                              CONSTANT      00000000              0
TXEN                              CONSTANT      00000005              5
gpasm-1.5.0 #1285 (Sep 12 2016) obj\Release\m   8-6-2020  15:31:05          PAGE 12


SYMBOL TABLE
  LABEL                              TYPE        VALUE         VALUE          VALUE
                                                 (hex)         (dec)          (text)

TXIE                              CONSTANT      00000004              4
TXIF                              CONSTANT      00000004              4
TXREG                             CONSTANT      00000019             25
TXSTA                             CONSTANT      00000098            152
UA                                CONSTANT      00000001              1
W                                 CONSTANT      00000000              0
WCOL                              CONSTANT      00000007              7
WR                                CONSTANT      00000001              1
WREN                              CONSTANT      00000002              2
WRERR                             CONSTANT      00000003              3
WSAVE                             GLOBAL        00000072            114
Z                                 CONSTANT      00000002              2
_00106_DS_                        ADDRESS       0000005C             92
_BODEN_OFF                        CONSTANT      00003FBF          16319
_BODEN_ON                         CONSTANT      00003FFF          16383
_BOREN_OFF                        CONSTANT      00003FBF          16319
_BOREN_ON                         CONSTANT      00003FFF          16383
_CONFIG                           CONSTANT      00002007           8199
_CPD_OFF                          CONSTANT      00003FFF          16383
_CPD_ON                           CONSTANT      00003EFF          16127
_CP_ALL                           CONSTANT      00001FFF           8191
_CP_OFF                           CONSTANT      00003FFF          16383
_CP_ON                            CONSTANT      00001FFF           8191
_DEBUG_OFF                        CONSTANT      00003FFF          16383
_DEBUG_ON                         CONSTANT      000037FF          14335
_DEVID1                           CONSTANT      00002006           8198
_DIG_CLK_init                     EXTERNAL      00000000              0
_FOSC_EXTRC                       CONSTANT      00003FFF          16383
_FOSC_HS                          CONSTANT      00003FFE          16382
_FOSC_LP                          CONSTANT      00003FFC          16380
_FOSC_XT                          CONSTANT      00003FFD          16381
_HS_OSC                           CONSTANT      00003FFE          16382
_IDLOC0                           CONSTANT      00002000           8192
_IDLOC1                           CONSTANT      00002001           8193
_IDLOC2                           CONSTANT      00002002           8194
_IDLOC3                           CONSTANT      00002003           8195
_LP_OSC                           CONSTANT      00003FFC          16380
_LVP_OFF                          CONSTANT      00003F7F          16255
_LVP_ON                           CONSTANT      00003FFF          16383
_PB_Init                          EXTERNAL      00000000              0
_PWRTE_OFF                        CONSTANT      00003FFF          16383
_PWRTE_ON                         CONSTANT      00003FF7          16375
_RC_OSC                           CONSTANT      00003FFF          16383
_SSD_Init                         EXTERNAL      00000000              0
_S_main__main_0006                ADDRESS       00000006              6
_S_main__main_000E                ADDRESS       0000000E             14
_S_main__main_0016                ADDRESS       00000016             22
_S_main__main_0020                ADDRESS       00000020             32
_S_main__main_002A                ADDRESS       0000002A             42
_S_main__main_0034                ADDRESS       00000034             52
_S_main__main_003E                ADDRESS       0000003E             62
_S_main__main_0044                ADDRESS       00000044             68
gpasm-1.5.0 #1285 (Sep 12 2016) obj\Release\m   8-6-2020  15:31:05          PAGE 13


SYMBOL TABLE
  LABEL                              TYPE        VALUE         VALUE          VALUE
                                                 (hex)         (dec)          (text)

_S_main__main_004A                ADDRESS       0000004A             74
_S_main__main_0050                ADDRESS       00000050             80
_S_main__main_0055                ADDRESS       00000055             85
_S_main__main_005A                ADDRESS       0000005A             90
_TMR0_Init                        EXTERNAL      00000000              0
_TMR0_Start                       EXTERNAL      00000000              0
_WDTE_OFF                         CONSTANT      00003FFB          16379
_WDTE_ON                          CONSTANT      00003FFF          16383
_WDT_OFF                          CONSTANT      00003FFB          16379
_WDT_ON                           CONSTANT      00003FFF          16383
_WRT_1FOURTH                      CONSTANT      00003BFF          15359
_WRT_256                          CONSTANT      00003DFF          15871
_WRT_HALF                         CONSTANT      000039FF          14847
_WRT_OFF                          CONSTANT      00003FFF          16383
_XT_OSC                           CONSTANT      00003FFD          16381
__14_BIT                          CONSTANT      00000001              1
__16F877A                         CONSTANT      00000001              1
__ACTIVE_BANK_ADDR                VARIABLE      FFFFFFFF             -1
__ACTIVE_PAGE_ADDR                VARIABLE      FFFFFFFF             -1
__ASSUMED_BANK_ADDR               VARIABLE      FFFFFFFF             -1
__BANK_0                          CONSTANT      00000000              0
__BANK_1                          CONSTANT      00000080            128
__BANK_2                          CONSTANT      00000100            256
__BANK_3                          CONSTANT      00000180            384
__BANK_BITS                       CONSTANT      00000180            384
__BANK_FIRST                      CONSTANT      00000000              0
__BANK_INV                        CONSTANT      FFFFFFFF             -1
__BANK_LAST                       CONSTANT      00000180            384
__BANK_MASK                       CONSTANT      0000007F            127
__BANK_SHIFT                      CONSTANT      00000007              7
__BANK_SIZE                       CONSTANT      00000080            128
__CODE_END                        CONSTANT      00001FFF           8191
__CODE_START                      CONSTANT      00000000              0
__COMMON_RAM_END                  CONSTANT      0000007F            127
__COMMON_RAM_START                CONSTANT      00000070            112
__CONFIG_END                      CONSTANT      00002007           8199
__CONFIG_START                    CONSTANT      00002007           8199
__EEPROM_END                      CONSTANT      000021FF           8703
__EEPROM_START                    CONSTANT      00002100           8448
__GPUTILS_SVN_VERSION             CONSTANT      00000505           1285
__GPUTILS_VERSION_MAJOR           CONSTANT      00000001              1
__GPUTILS_VERSION_MICRO           CONSTANT      00000000              0
__GPUTILS_VERSION_MINOR           CONSTANT      00000005              5
__IDLOCS_END                      CONSTANT      00002003           8195
__IDLOCS_START                    CONSTANT      00002000           8192
__NUM_BANKS                       CONSTANT      00000004              4
__NUM_PAGES                       CONSTANT      00000004              4
__PAGE_0                          CONSTANT      00000000              0
__PAGE_1                          CONSTANT      00000800           2048
__PAGE_2                          CONSTANT      00001000           4096
__PAGE_3                          CONSTANT      00001800           6144
__PAGE_BITS                       CONSTANT      00001800           6144
gpasm-1.5.0 #1285 (Sep 12 2016) obj\Release\m   8-6-2020  15:31:05          PAGE 14


SYMBOL TABLE
  LABEL                              TYPE        VALUE         VALUE          VALUE
                                                 (hex)         (dec)          (text)

__PAGE_FIRST                      CONSTANT      00000000              0
__PAGE_INV                        CONSTANT      FFFFFFFF             -1
__PAGE_LAST                       CONSTANT      00001800           6144
__PAGE_MASK                       CONSTANT      000007FF           2047
__PAGE_SHIFT                      CONSTANT      0000000B             11
__PAGE_SIZE                       CONSTANT      00000800           2048
__VECTOR_INT                      CONSTANT      00000004              4
__VECTOR_RESET                    CONSTANT      00000000              0
__WHILE_LOOP_COUNT_MAX            CONSTANT      000000FF            255
__sdcc_gsinit_startup             EXTERNAL      00000000              0
_hour_init                        EXTERNAL      00000000              0
_main                             GLOBAL        00000000              0
_minutes_init                     EXTERNAL      00000000              0

Errors   :     0
Warnings :     0 reported,     0 suppressed
Messages :     0 reported,     0 suppressed

