gplink-1.5.0 #1285 (Sep 12 2016)
Copyright (c) 1998-2016 gputils project
Listing File Generated: 8-6-2020  15:31:06


Address  Value    Disassembly              Source
-------  -----    -----------              ------
                                           ;--------------------------------------------------------
                                           ; File Created by SDCC : free open source ANSI-C Compiler
                                           ; Version 4.0.0 #11528 (MINGW64)
                                           ;--------------------------------------------------------
                                           ; PIC port for the 14-bit core
                                           ;--------------------------------------------------------
                                           ;	.file	"DIG_CLK_modes.c"
                                           	list	p=16f877a
                                           	radix dec
                                           	include "p16f877a.inc"
                                                   LIST

                                           ;==========================================================================
                                           ; Build date : Oct 21 2015
                                           ;  MPASM PIC16F877A processor include
                                           ; 
                                           ;  (c) Copyright 1999-2015 Microchip Technology, All rights reserved
                                           ;==========================================================================

                                                   NOLIST
                                           ;--------------------------------------------------------
                                           ; external declarations
                                           ;--------------------------------------------------------
                                           	extern	_PB_GetState

                                           	extern PSAVE
                                           	extern SSAVE
                                           	extern WSAVE
                                           	extern STK12
                                           	extern STK11
                                           	extern STK10
                                           	extern STK09
                                           	extern STK08
                                           	extern STK07
                                           	extern STK06
                                           	extern STK05
                                           	extern STK04
                                           	extern STK03
                                           	extern STK02
                                           	extern STK01
                                           	extern STK00
                                           ;--------------------------------------------------------
                                           ; global declarations
                                           ;--------------------------------------------------------
                                           	global	_DIG_CLK_init
                                           	global	_DIG_CLK_update
                                           	global	_get_mode

                                           ;--------------------------------------------------------
                                           ; global definitions
                                           ;--------------------------------------------------------
                                           ;--------------------------------------------------------
                                           ; absolute symbol definitions
                                           ;--------------------------------------------------------
                                           ;--------------------------------------------------------
                                           ; compiler-defined variables
                                           ;--------------------------------------------------------
                                           UDL_DIG_CLK_modes_0	udata
                                           r0x1001	res	1
                                           ;--------------------------------------------------------
                                           ; initialized data
                                           ;--------------------------------------------------------

                                           IDD_DIG_CLK_modes_0	idata
                                           _sys_mode
                                           	db	0x00	; 0

                                           ;--------------------------------------------------------
                                           ; initialized absolute data
                                           ;--------------------------------------------------------
                                           ;--------------------------------------------------------
                                           ; overlayable items in internal ram 
                                           ;--------------------------------------------------------
                                           ;	udata_ovr
                                           ;--------------------------------------------------------
                                           ; code
                                           ;--------------------------------------------------------
                                           code_DIG_CLK_modes	code
                                           ;***
                                           ;  pBlock Stats: dbName = C
                                           ;***
                                           ;has an exit
                                           ;; Starting pCode block
                                           S_DIG_CLK_modes__get_mode	code
                                           _get_mode:
                                           ; 2 exit points
                                           ;	.line	44; "DIG_CLK_modes.c"	return sys_mode ;
000fc3   1683     bsf     0x03, 0x5        	BANKSEL	_sys_mode
000fc4   1303     bcf     0x03, 0x6        
000fc5   0869     movf    0x69, 0x0        	MOVF	_sys_mode,W
                                           ;	.line	46; "DIG_CLK_modes.c"	}
000fc6   0008     return                   	RETURN	
                                           ; exit point of _get_mode

                                           ;***
                                           ;  pBlock Stats: dbName = C
                                           ;***
                                           ;functions called:
                                           ;   _PB_GetState
                                           ;   _PB_GetState
                                           ;   _PB_GetState
                                           ;   _PB_GetState
                                           ;   _PB_GetState
                                           ;   _PB_GetState
                                           ;1 compiler assigned register :
                                           ;   r0x1001
                                           ;; Starting pCode block
                                           S_DIG_CLK_modes__DIG_CLK_update	code
                                           _DIG_CLK_update:
                                           ; 0 exit points
                                           ;;swapping arguments (AOP_TYPEs 1/3)
                                           ;;unsigned compare: left >= lit(0x3=3), size=1
                                           ;	.line	18; "DIG_CLK_modes.c"	switch(sys_mode)
000ddd   3003     movlw   0x03             	MOVLW	0x03
000dde   1683     bsf     0x03, 0x5        	BANKSEL	_sys_mode
000ddf   1303     bcf     0x03, 0x6        
000de0   0269     subwf   0x69, 0x0        	SUBWF	_sys_mode,W
000de1   1803     btfsc   0x03, 0x0        	BTFSC	STATUS,0
000de2   2e25     goto    0x0625           	GOTO	_00002_DS_
                                           ;;genSkipc:3307: created from rifx:00000000047A57B0
000de3   300d     movlw   0x0d             	MOVLW	HIGH(_00139_DS_)
000de4   1283     bcf     0x03, 0x5        	BANKSEL	PCLATH
000de5   1303     bcf     0x03, 0x6        
000de6   008a     movwf   0x0a             	MOVWF	PCLATH
000de7   30f1     movlw   0xf1             	MOVLW	_00139_DS_
000de8   1683     bsf     0x03, 0x5        	BANKSEL	_sys_mode
000de9   1303     bcf     0x03, 0x6        
000dea   0769     addwf   0x69, 0x0        	ADDWF	_sys_mode,W
000deb   1c03     btfss   0x03, 0x0        	BTFSS	STATUS,0
000dec   2df0     goto    0x05f0           	GOTO	_00001_DS_
000ded   1283     bcf     0x03, 0x5        	BANKSEL	PCLATH
000dee   1303     bcf     0x03, 0x6        
000def   0a8a     incf    0x0a, 0x1        	INCF	PCLATH,F
                                           _00001_DS_:
000df0   0082     movwf   0x02             	MOVWF	PCL
                                           _00139_DS_:
000df1   2df4     goto    0x05f4           	GOTO	_00109_DS_
000df2   2e05     goto    0x0605           	GOTO	_00112_DS_
000df3   2e16     goto    0x0616           	GOTO	_00115_DS_
                                           _00109_DS_:
                                           ;	.line	22; "DIG_CLK_modes.c"	if(PB_GetState( PB_SET) ==  PB_PRE_PRESSED)  sys_mode = setting_hour ;
000df4   3002     movlw   0x02             	MOVLW	0x02
000df5   158a     bsf     0x0a, 0x3        	PAGESEL	_PB_GetState
000df6   120a     bcf     0x0a, 0x4        
000df7   2705     call    0x0705           	CALL	_PB_GetState
000df8   158a     bsf     0x0a, 0x3        	PAGESEL	$
000df9   120a     bcf     0x0a, 0x4        
000dfa   1683     bsf     0x03, 0x5        	BANKSEL	r0x1001
000dfb   1303     bcf     0x03, 0x6        
000dfc   00e8     movwf   0x68             	MOVWF	r0x1001
000dfd   3a01     xorlw   0x01             	XORLW	0x01
000dfe   1d03     btfss   0x03, 0x2        	BTFSS	STATUS,2
000dff   2e25     goto    0x0625           	GOTO	_00002_DS_
000e00   3001     movlw   0x01             	MOVLW	0x01
000e01   1683     bsf     0x03, 0x5        	BANKSEL	_sys_mode
000e02   1303     bcf     0x03, 0x6        
000e03   00e9     movwf   0x69             	MOVWF	_sys_mode
                                           ;	.line	24; "DIG_CLK_modes.c"	break;
000e04   2e25     goto    0x0625           	GOTO	_00002_DS_
                                           _00112_DS_:
                                           ;	.line	26; "DIG_CLK_modes.c"	if(PB_GetState( PB_SET) ==  PB_PRE_PRESSED)  sys_mode = settting_minutes ;
000e05   3002     movlw   0x02             	MOVLW	0x02
000e06   158a     bsf     0x0a, 0x3        	PAGESEL	_PB_GetState
000e07   120a     bcf     0x0a, 0x4        
000e08   2705     call    0x0705           	CALL	_PB_GetState
000e09   158a     bsf     0x0a, 0x3        	PAGESEL	$
000e0a   120a     bcf     0x0a, 0x4        
000e0b   1683     bsf     0x03, 0x5        	BANKSEL	r0x1001
000e0c   1303     bcf     0x03, 0x6        
000e0d   00e8     movwf   0x68             	MOVWF	r0x1001
000e0e   3a01     xorlw   0x01             	XORLW	0x01
000e0f   1d03     btfss   0x03, 0x2        	BTFSS	STATUS,2
000e10   2e25     goto    0x0625           	GOTO	_00002_DS_
000e11   3002     movlw   0x02             	MOVLW	0x02
000e12   1683     bsf     0x03, 0x5        	BANKSEL	_sys_mode
000e13   1303     bcf     0x03, 0x6        
000e14   00e9     movwf   0x69             	MOVWF	_sys_mode
                                           ;	.line	27; "DIG_CLK_modes.c"	break ;
000e15   2e25     goto    0x0625           	GOTO	_00002_DS_
                                           _00115_DS_:
                                           ;	.line	29; "DIG_CLK_modes.c"	if(PB_GetState( PB_SET) ==  PB_PRE_PRESSED)  sys_mode =  normal ;
000e16   3002     movlw   0x02             	MOVLW	0x02
000e17   158a     bsf     0x0a, 0x3        	PAGESEL	_PB_GetState
000e18   120a     bcf     0x0a, 0x4        
000e19   2705     call    0x0705           	CALL	_PB_GetState
000e1a   158a     bsf     0x0a, 0x3        	PAGESEL	$
000e1b   120a     bcf     0x0a, 0x4        
000e1c   1683     bsf     0x03, 0x5        	BANKSEL	r0x1001
000e1d   1303     bcf     0x03, 0x6        
000e1e   00e8     movwf   0x68             	MOVWF	r0x1001
                                           ;	.line	38; "DIG_CLK_modes.c"	}
000e1f   3a01     xorlw   0x01             	XORLW	0x01
000e20   1d03     btfss   0x03, 0x2        	BTFSS	STATUS,2
000e21   2e25     goto    0x0625           	GOTO	_00002_DS_
000e22   1683     bsf     0x03, 0x5        	BANKSEL	_sys_mode
000e23   1303     bcf     0x03, 0x6        
000e24   01e9     clrf    0x69             	CLRF	_sys_mode
                                           _00002_DS_:
000e25   0008     return                   	RETURN	

                                           ;***
                                           ;  pBlock Stats: dbName = C
                                           ;***
                                           ;has an exit
                                           ;; Starting pCode block
                                           S_DIG_CLK_modes__DIG_CLK_init	code
                                           _DIG_CLK_init:
                                           ; 2 exit points
                                           ;	.line	9; "DIG_CLK_modes.c"	void DIG_CLK_init(DIG_CLK_modes init_mode)
000fc7   1683     bsf     0x03, 0x5        	BANKSEL	_sys_mode
000fc8   1303     bcf     0x03, 0x6        
000fc9   00e9     movwf   0x69             	MOVWF	_sys_mode
                                           ;	.line	13; "DIG_CLK_modes.c"	}
000fca   0008     return                   	RETURN	
                                           ; exit point of _DIG_CLK_init


                                           ;	code size estimation:
                                           ;	   45+   18 =    63 instructions (  162 byte)

                                           	end
                                           ;--------------------------------------------------------
                                           ; File Created by SDCC : free open source ANSI-C Compiler
                                           ; Version 4.0.0 #11528 (MINGW64)
                                           ;--------------------------------------------------------
                                           ; PIC port for the 14-bit core
                                           ;--------------------------------------------------------
                                           ;	.file	"gpio.c"
                                           	list	p=16f877a
                                           	radix dec
                                           	include "p16f877a.inc"
                                                   LIST

                                           ;==========================================================================
                                           ; Build date : Oct 21 2015
                                           ;  MPASM PIC16F877A processor include
                                           ; 
                                           ;  (c) Copyright 1999-2015 Microchip Technology, All rights reserved
                                           ;==========================================================================

                                                   NOLIST
                                           ;--------------------------------------------------------
                                           ; external declarations
                                           ;--------------------------------------------------------
                                           	extern	_TRISE
                                           	extern	_TRISD
                                           	extern	_TRISC
                                           	extern	_TRISB
                                           	extern	_TRISA
                                           	extern	_PORTE
                                           	extern	_PORTD
                                           	extern	_PORTC
                                           	extern	_PORTB
                                           	extern	_PORTA

                                           	extern PSAVE
                                           	extern SSAVE
                                           	extern WSAVE
                                           	extern STK12
                                           	extern STK11
                                           	extern STK10
                                           	extern STK09
                                           	extern STK08
                                           	extern STK07
                                           	extern STK06
                                           	extern STK05
                                           	extern STK04
                                           	extern STK03
                                           	extern STK02
                                           	extern STK01
                                           	extern STK00
                                           ;--------------------------------------------------------
                                           ; global declarations
                                           ;--------------------------------------------------------
                                           	global	_GPIO_InitPortPin
                                           	global	_GPIO_InitPort
                                           	global	_GPIO_Update
                                           	global	_GPIO_SetPortPinState
                                           	global	_GPIO_SetPortState
                                           	global	_GPIO_GetPortPinState

                                           ;--------------------------------------------------------
                                           ; global definitions
                                           ;--------------------------------------------------------
                                           ;--------------------------------------------------------
                                           ; absolute symbol definitions
                                           ;--------------------------------------------------------
                                           ;--------------------------------------------------------
                                           ; compiler-defined variables
                                           ;--------------------------------------------------------
                                           UDL_gpio_0	udata
                                           r0x1012	res	1
                                           r0x1013	res	1
                                           r0x1014	res	1
                                           r0x1015	res	1
                                           r0x1016	res	1
                                           r0x1017	res	1
                                           r0x1018	res	1
                                           r0x1019	res	1
                                           r0x1006	res	1
                                           r0x1007	res	1
                                           r0x1008	res	1
                                           r0x1009	res	1
                                           r0x100A	res	1
                                           r0x100B	res	1
                                           r0x100C	res	1
                                           r0x100D	res	1
                                           r0x100F	res	1
                                           r0x100E	res	1
                                           r0x1010	res	1
                                           r0x1011	res	1
                                           r0x1000	res	1
                                           r0x1001	res	1
                                           r0x1002	res	1
                                           r0x1003	res	1
                                           r0x1004	res	1
                                           r0x1005	res	1
                                           ;--------------------------------------------------------
                                           ; initialized data
                                           ;--------------------------------------------------------
                                           ;--------------------------------------------------------
                                           ; initialized absolute data
                                           ;--------------------------------------------------------
                                           ;--------------------------------------------------------
                                           ; overlayable items in internal ram 
                                           ;--------------------------------------------------------
                                           ;	udata_ovr
                                           ;--------------------------------------------------------
                                           ; code
                                           ;--------------------------------------------------------
                                           code_gpio	code
                                           ;***
                                           ;  pBlock Stats: dbName = C
                                           ;***
                                           ;has an exit
                                           ;7 compiler assigned registers:
                                           ;   r0x1000
                                           ;   STK00
                                           ;   r0x1001
                                           ;   r0x1002
                                           ;   r0x1003
                                           ;   r0x1004
                                           ;   r0x1005
                                           ;; Starting pCode block
                                           S_gpio__GPIO_GetPortPinState	code
                                           _GPIO_GetPortPinState:
                                           ; 2 exit points
                                           ;	.line	87; "gpio.c"	unsigned char GPIO_GetPortPinState(tPort port, unsigned char pin)
0005c6   1283     bcf     0x03, 0x5        	BANKSEL	r0x1000
0005c7   1303     bcf     0x03, 0x6        
0005c8   00b4     movwf   0x34             	MOVWF	r0x1000
0005c9   087f     movf    0x7f, 0x0        	MOVF	STK00,W
0005ca   00b5     movwf   0x35             	MOVWF	r0x1001
                                           ;	.line	89; "gpio.c"	unsigned char ret = 0;
0005cb   01b6     clrf    0x36             	CLRF	r0x1002
                                           ;;swapping arguments (AOP_TYPEs 1/2)
                                           ;;unsigned compare: left >= lit(0x5=5), size=1
                                           ;	.line	91; "gpio.c"	switch(port)
0005cc   3005     movlw   0x05             	MOVLW	0x05
0005cd   0234     subwf   0x34, 0x0        	SUBWF	r0x1000,W
0005ce   1803     btfsc   0x03, 0x0        	BTFSC	STATUS,0
0005cf   2ee1     goto    0x06e1           	GOTO	_00234_DS_
                                           ;;genSkipc:3307: created from rifx:00000000047A57B0
0005d0   3005     movlw   0x05             	MOVLW	HIGH(_00242_DS_)
0005d1   1283     bcf     0x03, 0x5        	BANKSEL	PCLATH
0005d2   1303     bcf     0x03, 0x6        
0005d3   008a     movwf   0x0a             	MOVWF	PCLATH
0005d4   30de     movlw   0xde             	MOVLW	_00242_DS_
0005d5   1283     bcf     0x03, 0x5        	BANKSEL	r0x1000
0005d6   1303     bcf     0x03, 0x6        
0005d7   0734     addwf   0x34, 0x0        	ADDWF	r0x1000,W
0005d8   1c03     btfss   0x03, 0x0        	BTFSS	STATUS,0
0005d9   2ddd     goto    0x05dd           	GOTO	_00001_DS_
0005da   1283     bcf     0x03, 0x5        	BANKSEL	PCLATH
0005db   1303     bcf     0x03, 0x6        
0005dc   0a8a     incf    0x0a, 0x1        	INCF	PCLATH,F
                                           _00001_DS_:
0005dd   0082     movwf   0x02             	MOVWF	PCL
                                           _00242_DS_:
0005de   2de3     goto    0x05e3           	GOTO	_00229_DS_
0005df   2e16     goto    0x0616           	GOTO	_00230_DS_
0005e0   2e49     goto    0x0649           	GOTO	_00231_DS_
0005e1   2e7c     goto    0x067c           	GOTO	_00232_DS_
0005e2   2eaf     goto    0x06af           	GOTO	_00233_DS_
                                           _00229_DS_:
                                           ;	.line	94; "gpio.c"	ret =  READ_REGISTER_PIN(PORTA, pin);
0005e3   3000     movlw   0x00             	MOVLW	0x00
0005e4   1283     bcf     0x03, 0x5        	BANKSEL	r0x1003
0005e5   1303     bcf     0x03, 0x6        
0005e6   00b7     movwf   0x37             	MOVWF	r0x1003
0005e7   3001     movlw   0x01             	MOVLW	0x01
0005e8   00b4     movwf   0x34             	MOVWF	r0x1000
0005e9   0835     movf    0x35, 0x0        	MOVF	r0x1001,W
0005ea   3c00     sublw   0x00             	SUBLW	0x00
0005eb   1903     btfsc   0x03, 0x2        	BTFSC	STATUS,2
0005ec   2df4     goto    0x05f4           	GOTO	_00244_DS_
                                           _00243_DS_:
0005ed   1283     bcf     0x03, 0x5        	BANKSEL	r0x1000
0005ee   1303     bcf     0x03, 0x6        
0005ef   0db4     rlf     0x34, 0x1        	RLF	r0x1000,F
0005f0   0db7     rlf     0x37, 0x1        	RLF	r0x1003,F
0005f1   3e01     addlw   0x01             	ADDLW	0x01
0005f2   1c03     btfss   0x03, 0x0        	BTFSS	STATUS,0
0005f3   2ded     goto    0x05ed           	GOTO	_00243_DS_
                                           _00244_DS_:
0005f4   1283     bcf     0x03, 0x5        	BANKSEL	_PORTA
0005f5   1303     bcf     0x03, 0x6        
0005f6   0805     movf    0x05, 0x0        	MOVF	_PORTA,W
0005f7   1283     bcf     0x03, 0x5        	BANKSEL	r0x1004
0005f8   1303     bcf     0x03, 0x6        
0005f9   00b8     movwf   0x38             	MOVWF	r0x1004
0005fa   01b9     clrf    0x39             	CLRF	r0x1005
0005fb   0838     movf    0x38, 0x0        	MOVF	r0x1004,W
0005fc   05b4     andwf   0x34, 0x1        	ANDWF	r0x1000,F
0005fd   3000     movlw   0x00             	MOVLW	0x00
0005fe   05b7     andwf   0x37, 0x1        	ANDWF	r0x1003,F
0005ff   0837     movf    0x37, 0x0        	MOVF	r0x1003,W
000600   00b9     movwf   0x39             	MOVWF	r0x1005
000601   0834     movf    0x34, 0x0        	MOVF	r0x1000,W
000602   00b8     movwf   0x38             	MOVWF	r0x1004
000603   0835     movf    0x35, 0x0        	MOVF	r0x1001,W
000604   3c00     sublw   0x00             	SUBLW	0x00
000605   1903     btfsc   0x03, 0x2        	BTFSC	STATUS,2
000606   2e11     goto    0x0611           	GOTO	_00246_DS_
                                           _00245_DS_:
000607   1003     bcf     0x03, 0x0        	BCF	STATUS,0
000608   1283     bcf     0x03, 0x5        	BANKSEL	r0x1005
000609   1303     bcf     0x03, 0x6        
00060a   1bb9     btfsc   0x39, 0x7        	BTFSC	r0x1005,7
00060b   1403     bsf     0x03, 0x0        	BSF	STATUS,0
00060c   0cb9     rrf     0x39, 0x1        	RRF	r0x1005,F
00060d   0cb8     rrf     0x38, 0x1        	RRF	r0x1004,F
00060e   3e01     addlw   0x01             	ADDLW	0x01
00060f   1c03     btfss   0x03, 0x0        	BTFSS	STATUS,0
000610   2e07     goto    0x0607           	GOTO	_00245_DS_
                                           _00246_DS_:
000611   1283     bcf     0x03, 0x5        	BANKSEL	r0x1004
000612   1303     bcf     0x03, 0x6        
000613   0838     movf    0x38, 0x0        	MOVF	r0x1004,W
000614   00b6     movwf   0x36             	MOVWF	r0x1002
                                           ;	.line	95; "gpio.c"	break;
000615   2ee1     goto    0x06e1           	GOTO	_00234_DS_
                                           _00230_DS_:
                                           ;	.line	98; "gpio.c"	ret =  READ_REGISTER_PIN(PORTB, pin);
000616   3000     movlw   0x00             	MOVLW	0x00
000617   1283     bcf     0x03, 0x5        	BANKSEL	r0x1003
000618   1303     bcf     0x03, 0x6        
000619   00b7     movwf   0x37             	MOVWF	r0x1003
00061a   3001     movlw   0x01             	MOVLW	0x01
00061b   00b4     movwf   0x34             	MOVWF	r0x1000
00061c   0835     movf    0x35, 0x0        	MOVF	r0x1001,W
00061d   3c00     sublw   0x00             	SUBLW	0x00
00061e   1903     btfsc   0x03, 0x2        	BTFSC	STATUS,2
00061f   2e27     goto    0x0627           	GOTO	_00248_DS_
                                           _00247_DS_:
000620   1283     bcf     0x03, 0x5        	BANKSEL	r0x1000
000621   1303     bcf     0x03, 0x6        
000622   0db4     rlf     0x34, 0x1        	RLF	r0x1000,F
000623   0db7     rlf     0x37, 0x1        	RLF	r0x1003,F
000624   3e01     addlw   0x01             	ADDLW	0x01
000625   1c03     btfss   0x03, 0x0        	BTFSS	STATUS,0
000626   2e20     goto    0x0620           	GOTO	_00247_DS_
                                           _00248_DS_:
000627   1283     bcf     0x03, 0x5        	BANKSEL	_PORTB
000628   1303     bcf     0x03, 0x6        
000629   0806     movf    0x06, 0x0        	MOVF	_PORTB,W
00062a   1283     bcf     0x03, 0x5        	BANKSEL	r0x1004
00062b   1303     bcf     0x03, 0x6        
00062c   00b8     movwf   0x38             	MOVWF	r0x1004
00062d   01b9     clrf    0x39             	CLRF	r0x1005
00062e   0838     movf    0x38, 0x0        	MOVF	r0x1004,W
00062f   05b4     andwf   0x34, 0x1        	ANDWF	r0x1000,F
000630   3000     movlw   0x00             	MOVLW	0x00
000631   05b7     andwf   0x37, 0x1        	ANDWF	r0x1003,F
000632   0837     movf    0x37, 0x0        	MOVF	r0x1003,W
000633   00b9     movwf   0x39             	MOVWF	r0x1005
000634   0834     movf    0x34, 0x0        	MOVF	r0x1000,W
000635   00b8     movwf   0x38             	MOVWF	r0x1004
000636   0835     movf    0x35, 0x0        	MOVF	r0x1001,W
000637   3c00     sublw   0x00             	SUBLW	0x00
000638   1903     btfsc   0x03, 0x2        	BTFSC	STATUS,2
000639   2e44     goto    0x0644           	GOTO	_00250_DS_
                                           _00249_DS_:
00063a   1003     bcf     0x03, 0x0        	BCF	STATUS,0
00063b   1283     bcf     0x03, 0x5        	BANKSEL	r0x1005
00063c   1303     bcf     0x03, 0x6        
00063d   1bb9     btfsc   0x39, 0x7        	BTFSC	r0x1005,7
00063e   1403     bsf     0x03, 0x0        	BSF	STATUS,0
00063f   0cb9     rrf     0x39, 0x1        	RRF	r0x1005,F
000640   0cb8     rrf     0x38, 0x1        	RRF	r0x1004,F
000641   3e01     addlw   0x01             	ADDLW	0x01
000642   1c03     btfss   0x03, 0x0        	BTFSS	STATUS,0
000643   2e3a     goto    0x063a           	GOTO	_00249_DS_
                                           _00250_DS_:
000644   1283     bcf     0x03, 0x5        	BANKSEL	r0x1004
000645   1303     bcf     0x03, 0x6        
000646   0838     movf    0x38, 0x0        	MOVF	r0x1004,W
000647   00b6     movwf   0x36             	MOVWF	r0x1002
                                           ;	.line	99; "gpio.c"	break;
000648   2ee1     goto    0x06e1           	GOTO	_00234_DS_
                                           _00231_DS_:
                                           ;	.line	102; "gpio.c"	ret =  READ_REGISTER_PIN(PORTC, pin);
000649   3000     movlw   0x00             	MOVLW	0x00
00064a   1283     bcf     0x03, 0x5        	BANKSEL	r0x1003
00064b   1303     bcf     0x03, 0x6        
00064c   00b7     movwf   0x37             	MOVWF	r0x1003
00064d   3001     movlw   0x01             	MOVLW	0x01
00064e   00b4     movwf   0x34             	MOVWF	r0x1000
00064f   0835     movf    0x35, 0x0        	MOVF	r0x1001,W
000650   3c00     sublw   0x00             	SUBLW	0x00
000651   1903     btfsc   0x03, 0x2        	BTFSC	STATUS,2
000652   2e5a     goto    0x065a           	GOTO	_00252_DS_
                                           _00251_DS_:
000653   1283     bcf     0x03, 0x5        	BANKSEL	r0x1000
000654   1303     bcf     0x03, 0x6        
000655   0db4     rlf     0x34, 0x1        	RLF	r0x1000,F
000656   0db7     rlf     0x37, 0x1        	RLF	r0x1003,F
000657   3e01     addlw   0x01             	ADDLW	0x01
000658   1c03     btfss   0x03, 0x0        	BTFSS	STATUS,0
000659   2e53     goto    0x0653           	GOTO	_00251_DS_
                                           _00252_DS_:
00065a   1283     bcf     0x03, 0x5        	BANKSEL	_PORTC
00065b   1303     bcf     0x03, 0x6        
00065c   0807     movf    0x07, 0x0        	MOVF	_PORTC,W
00065d   1283     bcf     0x03, 0x5        	BANKSEL	r0x1004
00065e   1303     bcf     0x03, 0x6        
00065f   00b8     movwf   0x38             	MOVWF	r0x1004
000660   01b9     clrf    0x39             	CLRF	r0x1005
000661   0838     movf    0x38, 0x0        	MOVF	r0x1004,W
000662   05b4     andwf   0x34, 0x1        	ANDWF	r0x1000,F
000663   3000     movlw   0x00             	MOVLW	0x00
000664   05b7     andwf   0x37, 0x1        	ANDWF	r0x1003,F
000665   0837     movf    0x37, 0x0        	MOVF	r0x1003,W
000666   00b9     movwf   0x39             	MOVWF	r0x1005
000667   0834     movf    0x34, 0x0        	MOVF	r0x1000,W
000668   00b8     movwf   0x38             	MOVWF	r0x1004
000669   0835     movf    0x35, 0x0        	MOVF	r0x1001,W
00066a   3c00     sublw   0x00             	SUBLW	0x00
00066b   1903     btfsc   0x03, 0x2        	BTFSC	STATUS,2
00066c   2e77     goto    0x0677           	GOTO	_00254_DS_
                                           _00253_DS_:
00066d   1003     bcf     0x03, 0x0        	BCF	STATUS,0
00066e   1283     bcf     0x03, 0x5        	BANKSEL	r0x1005
00066f   1303     bcf     0x03, 0x6        
000670   1bb9     btfsc   0x39, 0x7        	BTFSC	r0x1005,7
000671   1403     bsf     0x03, 0x0        	BSF	STATUS,0
000672   0cb9     rrf     0x39, 0x1        	RRF	r0x1005,F
000673   0cb8     rrf     0x38, 0x1        	RRF	r0x1004,F
000674   3e01     addlw   0x01             	ADDLW	0x01
000675   1c03     btfss   0x03, 0x0        	BTFSS	STATUS,0
000676   2e6d     goto    0x066d           	GOTO	_00253_DS_
                                           _00254_DS_:
000677   1283     bcf     0x03, 0x5        	BANKSEL	r0x1004
000678   1303     bcf     0x03, 0x6        
000679   0838     movf    0x38, 0x0        	MOVF	r0x1004,W
00067a   00b6     movwf   0x36             	MOVWF	r0x1002
                                           ;	.line	103; "gpio.c"	break;
00067b   2ee1     goto    0x06e1           	GOTO	_00234_DS_
                                           _00232_DS_:
                                           ;	.line	107; "gpio.c"	ret =  READ_REGISTER_PIN(PORTD, pin);
00067c   3000     movlw   0x00             	MOVLW	0x00
00067d   1283     bcf     0x03, 0x5        	BANKSEL	r0x1003
00067e   1303     bcf     0x03, 0x6        
00067f   00b7     movwf   0x37             	MOVWF	r0x1003
000680   3001     movlw   0x01             	MOVLW	0x01
000681   00b4     movwf   0x34             	MOVWF	r0x1000
000682   0835     movf    0x35, 0x0        	MOVF	r0x1001,W
000683   3c00     sublw   0x00             	SUBLW	0x00
000684   1903     btfsc   0x03, 0x2        	BTFSC	STATUS,2
000685   2e8d     goto    0x068d           	GOTO	_00256_DS_
                                           _00255_DS_:
000686   1283     bcf     0x03, 0x5        	BANKSEL	r0x1000
000687   1303     bcf     0x03, 0x6        
000688   0db4     rlf     0x34, 0x1        	RLF	r0x1000,F
000689   0db7     rlf     0x37, 0x1        	RLF	r0x1003,F
00068a   3e01     addlw   0x01             	ADDLW	0x01
00068b   1c03     btfss   0x03, 0x0        	BTFSS	STATUS,0
00068c   2e86     goto    0x0686           	GOTO	_00255_DS_
                                           _00256_DS_:
00068d   1283     bcf     0x03, 0x5        	BANKSEL	_PORTD
00068e   1303     bcf     0x03, 0x6        
00068f   0808     movf    0x08, 0x0        	MOVF	_PORTD,W
000690   1283     bcf     0x03, 0x5        	BANKSEL	r0x1004
000691   1303     bcf     0x03, 0x6        
000692   00b8     movwf   0x38             	MOVWF	r0x1004
000693   01b9     clrf    0x39             	CLRF	r0x1005
000694   0838     movf    0x38, 0x0        	MOVF	r0x1004,W
000695   05b4     andwf   0x34, 0x1        	ANDWF	r0x1000,F
000696   3000     movlw   0x00             	MOVLW	0x00
000697   05b7     andwf   0x37, 0x1        	ANDWF	r0x1003,F
000698   0837     movf    0x37, 0x0        	MOVF	r0x1003,W
000699   00b9     movwf   0x39             	MOVWF	r0x1005
00069a   0834     movf    0x34, 0x0        	MOVF	r0x1000,W
00069b   00b8     movwf   0x38             	MOVWF	r0x1004
00069c   0835     movf    0x35, 0x0        	MOVF	r0x1001,W
00069d   3c00     sublw   0x00             	SUBLW	0x00
00069e   1903     btfsc   0x03, 0x2        	BTFSC	STATUS,2
00069f   2eaa     goto    0x06aa           	GOTO	_00258_DS_
                                           _00257_DS_:
0006a0   1003     bcf     0x03, 0x0        	BCF	STATUS,0
0006a1   1283     bcf     0x03, 0x5        	BANKSEL	r0x1005
0006a2   1303     bcf     0x03, 0x6        
0006a3   1bb9     btfsc   0x39, 0x7        	BTFSC	r0x1005,7
0006a4   1403     bsf     0x03, 0x0        	BSF	STATUS,0
0006a5   0cb9     rrf     0x39, 0x1        	RRF	r0x1005,F
0006a6   0cb8     rrf     0x38, 0x1        	RRF	r0x1004,F
0006a7   3e01     addlw   0x01             	ADDLW	0x01
0006a8   1c03     btfss   0x03, 0x0        	BTFSS	STATUS,0
0006a9   2ea0     goto    0x06a0           	GOTO	_00257_DS_
                                           _00258_DS_:
0006aa   1283     bcf     0x03, 0x5        	BANKSEL	r0x1004
0006ab   1303     bcf     0x03, 0x6        
0006ac   0838     movf    0x38, 0x0        	MOVF	r0x1004,W
0006ad   00b6     movwf   0x36             	MOVWF	r0x1002
                                           ;	.line	108; "gpio.c"	break;
0006ae   2ee1     goto    0x06e1           	GOTO	_00234_DS_
                                           _00233_DS_:
                                           ;	.line	111; "gpio.c"	ret =  READ_REGISTER_PIN(PORTE, pin);
0006af   3000     movlw   0x00             	MOVLW	0x00
0006b0   1283     bcf     0x03, 0x5        	BANKSEL	r0x1003
0006b1   1303     bcf     0x03, 0x6        
0006b2   00b7     movwf   0x37             	MOVWF	r0x1003
0006b3   3001     movlw   0x01             	MOVLW	0x01
0006b4   00b4     movwf   0x34             	MOVWF	r0x1000
0006b5   0835     movf    0x35, 0x0        	MOVF	r0x1001,W
0006b6   3c00     sublw   0x00             	SUBLW	0x00
0006b7   1903     btfsc   0x03, 0x2        	BTFSC	STATUS,2
0006b8   2ec0     goto    0x06c0           	GOTO	_00260_DS_
                                           _00259_DS_:
0006b9   1283     bcf     0x03, 0x5        	BANKSEL	r0x1000
0006ba   1303     bcf     0x03, 0x6        
0006bb   0db4     rlf     0x34, 0x1        	RLF	r0x1000,F
0006bc   0db7     rlf     0x37, 0x1        	RLF	r0x1003,F
0006bd   3e01     addlw   0x01             	ADDLW	0x01
0006be   1c03     btfss   0x03, 0x0        	BTFSS	STATUS,0
0006bf   2eb9     goto    0x06b9           	GOTO	_00259_DS_
                                           _00260_DS_:
0006c0   1283     bcf     0x03, 0x5        	BANKSEL	_PORTE
0006c1   1303     bcf     0x03, 0x6        
0006c2   0809     movf    0x09, 0x0        	MOVF	_PORTE,W
0006c3   1283     bcf     0x03, 0x5        	BANKSEL	r0x1004
0006c4   1303     bcf     0x03, 0x6        
0006c5   00b8     movwf   0x38             	MOVWF	r0x1004
0006c6   01b9     clrf    0x39             	CLRF	r0x1005
0006c7   0838     movf    0x38, 0x0        	MOVF	r0x1004,W
0006c8   05b4     andwf   0x34, 0x1        	ANDWF	r0x1000,F
0006c9   3000     movlw   0x00             	MOVLW	0x00
0006ca   05b7     andwf   0x37, 0x1        	ANDWF	r0x1003,F
0006cb   0837     movf    0x37, 0x0        	MOVF	r0x1003,W
0006cc   00b9     movwf   0x39             	MOVWF	r0x1005
0006cd   0834     movf    0x34, 0x0        	MOVF	r0x1000,W
0006ce   00b8     movwf   0x38             	MOVWF	r0x1004
0006cf   0835     movf    0x35, 0x0        	MOVF	r0x1001,W
0006d0   3c00     sublw   0x00             	SUBLW	0x00
0006d1   1903     btfsc   0x03, 0x2        	BTFSC	STATUS,2
0006d2   2edd     goto    0x06dd           	GOTO	_00262_DS_
                                           _00261_DS_:
0006d3   1003     bcf     0x03, 0x0        	BCF	STATUS,0
0006d4   1283     bcf     0x03, 0x5        	BANKSEL	r0x1005
0006d5   1303     bcf     0x03, 0x6        
0006d6   1bb9     btfsc   0x39, 0x7        	BTFSC	r0x1005,7
0006d7   1403     bsf     0x03, 0x0        	BSF	STATUS,0
0006d8   0cb9     rrf     0x39, 0x1        	RRF	r0x1005,F
0006d9   0cb8     rrf     0x38, 0x1        	RRF	r0x1004,F
0006da   3e01     addlw   0x01             	ADDLW	0x01
0006db   1c03     btfss   0x03, 0x0        	BTFSS	STATUS,0
0006dc   2ed3     goto    0x06d3           	GOTO	_00261_DS_
                                           _00262_DS_:
0006dd   1283     bcf     0x03, 0x5        	BANKSEL	r0x1004
0006de   1303     bcf     0x03, 0x6        
0006df   0838     movf    0x38, 0x0        	MOVF	r0x1004,W
0006e0   00b6     movwf   0x36             	MOVWF	r0x1002
                                           _00234_DS_:
                                           ;	.line	116; "gpio.c"	return ret;
0006e1   1283     bcf     0x03, 0x5        	BANKSEL	r0x1002
0006e2   1303     bcf     0x03, 0x6        
0006e3   0836     movf    0x36, 0x0        	MOVF	r0x1002,W
                                           ;	.line	117; "gpio.c"	}
0006e4   0008     return                   	RETURN	
                                           ; exit point of _GPIO_GetPortPinState

                                           ;***
                                           ;  pBlock Stats: dbName = C
                                           ;***
                                           ;has an exit
                                           ;functions called:
                                           ;   _GPIO_SetPortPinState
                                           ;   _GPIO_SetPortPinState
                                           ;9 compiler assigned registers:
                                           ;   r0x100B
                                           ;   STK00
                                           ;   r0x100C
                                           ;   r0x100D
                                           ;   r0x100E
                                           ;   r0x100F
                                           ;   r0x1010
                                           ;   r0x1011
                                           ;   STK01
                                           ;; Starting pCode block
                                           S_gpio__GPIO_SetPortState	code
                                           _GPIO_SetPortState:
                                           ; 2 exit points
                                           ;	.line	77; "gpio.c"	void GPIO_SetPortState(tPort port, unsigned char state)
000e26   1283     bcf     0x03, 0x5        	BANKSEL	r0x100B
000e27   1303     bcf     0x03, 0x6        
000e28   00ad     movwf   0x2d             	MOVWF	r0x100B
000e29   087f     movf    0x7f, 0x0        	MOVF	STK00,W
000e2a   00ae     movwf   0x2e             	MOVWF	r0x100C
                                           ;	.line	81; "gpio.c"	for (i = 0; i < 8; i++)
000e2b   01af     clrf    0x2f             	CLRF	r0x100D
                                           _00212_DS_:
                                           ;	.line	83; "gpio.c"	GPIO_SetPortPinState(port, i, READ_REGISTER_PIN(state, i));
000e2c   3000     movlw   0x00             	MOVLW	0x00
000e2d   1283     bcf     0x03, 0x5        	BANKSEL	r0x100E
000e2e   1303     bcf     0x03, 0x6        
000e2f   00b1     movwf   0x31             	MOVWF	r0x100E
000e30   3001     movlw   0x01             	MOVLW	0x01
000e31   00b0     movwf   0x30             	MOVWF	r0x100F
000e32   082f     movf    0x2f, 0x0        	MOVF	r0x100D,W
000e33   3c00     sublw   0x00             	SUBLW	0x00
000e34   1903     btfsc   0x03, 0x2        	BTFSC	STATUS,2
000e35   2e3d     goto    0x063d           	GOTO	_00222_DS_
                                           _00221_DS_:
000e36   1283     bcf     0x03, 0x5        	BANKSEL	r0x100F
000e37   1303     bcf     0x03, 0x6        
000e38   0db0     rlf     0x30, 0x1        	RLF	r0x100F,F
000e39   0db1     rlf     0x31, 0x1        	RLF	r0x100E,F
000e3a   3e01     addlw   0x01             	ADDLW	0x01
000e3b   1c03     btfss   0x03, 0x0        	BTFSS	STATUS,0
000e3c   2e36     goto    0x0636           	GOTO	_00221_DS_
                                           ;;104	MOVF	r0x100C,W
                                           _00222_DS_:
000e3d   1283     bcf     0x03, 0x5        	BANKSEL	r0x1011
000e3e   1303     bcf     0x03, 0x6        
000e3f   01b3     clrf    0x33             	CLRF	r0x1011
                                           ;;103	MOVF	r0x1010,W
000e40   082e     movf    0x2e, 0x0        	MOVF	r0x100C,W
000e41   00b2     movwf   0x32             	MOVWF	r0x1010
000e42   05b0     andwf   0x30, 0x1        	ANDWF	r0x100F,F
000e43   3000     movlw   0x00             	MOVLW	0x00
000e44   05b1     andwf   0x31, 0x1        	ANDWF	r0x100E,F
000e45   0831     movf    0x31, 0x0        	MOVF	r0x100E,W
000e46   00b3     movwf   0x33             	MOVWF	r0x1011
000e47   0830     movf    0x30, 0x0        	MOVF	r0x100F,W
000e48   00b2     movwf   0x32             	MOVWF	r0x1010
000e49   082f     movf    0x2f, 0x0        	MOVF	r0x100D,W
000e4a   3c00     sublw   0x00             	SUBLW	0x00
000e4b   1903     btfsc   0x03, 0x2        	BTFSC	STATUS,2
000e4c   2e57     goto    0x0657           	GOTO	_00224_DS_
                                           _00223_DS_:
000e4d   1003     bcf     0x03, 0x0        	BCF	STATUS,0
000e4e   1283     bcf     0x03, 0x5        	BANKSEL	r0x1011
000e4f   1303     bcf     0x03, 0x6        
000e50   1bb3     btfsc   0x33, 0x7        	BTFSC	r0x1011,7
000e51   1403     bsf     0x03, 0x0        	BSF	STATUS,0
000e52   0cb3     rrf     0x33, 0x1        	RRF	r0x1011,F
000e53   0cb2     rrf     0x32, 0x1        	RRF	r0x1010,F
000e54   3e01     addlw   0x01             	ADDLW	0x01
000e55   1c03     btfss   0x03, 0x0        	BTFSS	STATUS,0
000e56   2e4d     goto    0x064d           	GOTO	_00223_DS_
                                           _00224_DS_:
000e57   1283     bcf     0x03, 0x5        	BANKSEL	r0x1010
000e58   1303     bcf     0x03, 0x6        
000e59   0832     movf    0x32, 0x0        	MOVF	r0x1010,W
000e5a   00b0     movwf   0x30             	MOVWF	r0x100F
000e5b   00fe     movwf   0x7e             	MOVWF	STK01
000e5c   082f     movf    0x2f, 0x0        	MOVF	r0x100D,W
000e5d   00ff     movwf   0x7f             	MOVWF	STK00
000e5e   082d     movf    0x2d, 0x0        	MOVF	r0x100B,W
000e5f   118a     bcf     0x0a, 0x3        	PAGESEL	_GPIO_SetPortPinState
000e60   120a     bcf     0x0a, 0x4        
000e61   2215     call    0x0215           	CALL	_GPIO_SetPortPinState
000e62   158a     bsf     0x0a, 0x3        	PAGESEL	$
000e63   120a     bcf     0x0a, 0x4        
                                           ;	.line	81; "gpio.c"	for (i = 0; i < 8; i++)
000e64   1283     bcf     0x03, 0x5        	BANKSEL	r0x100D
000e65   1303     bcf     0x03, 0x6        
000e66   0aaf     incf    0x2f, 0x1        	INCF	r0x100D,F
                                           ;;unsigned compare: left < lit(0x8=8), size=1
000e67   3008     movlw   0x08             	MOVLW	0x08
000e68   022f     subwf   0x2f, 0x0        	SUBWF	r0x100D,W
000e69   1c03     btfss   0x03, 0x0        	BTFSS	STATUS,0
000e6a   2e2c     goto    0x062c           	GOTO	_00212_DS_
                                           ;;genSkipc:3307: created from rifx:00000000047A57B0
                                           ;	.line	85; "gpio.c"	}
000e6b   0008     return                   	RETURN	
                                           ; exit point of _GPIO_SetPortState

                                           ;***
                                           ;  pBlock Stats: dbName = C
                                           ;***
                                           ;has an exit
                                           ;7 compiler assigned registers:
                                           ;   r0x1006
                                           ;   STK00
                                           ;   r0x1007
                                           ;   STK01
                                           ;   r0x1008
                                           ;   r0x1009
                                           ;   r0x100A
                                           ;; Starting pCode block
                                           S_gpio__GPIO_SetPortPinState	code
                                           _GPIO_SetPortPinState:
                                           ; 2 exit points
                                           ;	.line	51; "gpio.c"	void GPIO_SetPortPinState(tPort port, unsigned char pin, unsigned char state)
000215   1283     bcf     0x03, 0x5        	BANKSEL	r0x1006
000216   1303     bcf     0x03, 0x6        
000217   00a8     movwf   0x28             	MOVWF	r0x1006
000218   087f     movf    0x7f, 0x0        	MOVF	STK00,W
000219   00a9     movwf   0x29             	MOVWF	r0x1007
00021a   087e     movf    0x7e, 0x0        	MOVF	STK01,W
00021b   00aa     movwf   0x2a             	MOVWF	r0x1008
                                           ;;swapping arguments (AOP_TYPEs 1/2)
                                           ;;unsigned compare: left >= lit(0x5=5), size=1
                                           ;	.line	53; "gpio.c"	switch(port)
00021c   3005     movlw   0x05             	MOVLW	0x05
00021d   0228     subwf   0x28, 0x0        	SUBWF	r0x1006,W
00021e   1803     btfsc   0x03, 0x0        	BTFSC	STATUS,0
00021f   2b59     goto    0x0359           	GOTO	_00169_DS_
                                           ;;genSkipc:3307: created from rifx:00000000047A57B0
000220   3002     movlw   0x02             	MOVLW	HIGH(_00176_DS_)
000221   1283     bcf     0x03, 0x5        	BANKSEL	PCLATH
000222   1303     bcf     0x03, 0x6        
000223   008a     movwf   0x0a             	MOVWF	PCLATH
000224   302e     movlw   0x2e             	MOVLW	_00176_DS_
000225   1283     bcf     0x03, 0x5        	BANKSEL	r0x1006
000226   1303     bcf     0x03, 0x6        
000227   0728     addwf   0x28, 0x0        	ADDWF	r0x1006,W
000228   1c03     btfss   0x03, 0x0        	BTFSS	STATUS,0
000229   2a2d     goto    0x022d           	GOTO	_00002_DS_
00022a   1283     bcf     0x03, 0x5        	BANKSEL	PCLATH
00022b   1303     bcf     0x03, 0x6        
00022c   0a8a     incf    0x0a, 0x1        	INCF	PCLATH,F
                                           _00002_DS_:
00022d   0082     movwf   0x02             	MOVWF	PCL
                                           _00176_DS_:
00022e   2a33     goto    0x0233           	GOTO	_00163_DS_
00022f   2a6e     goto    0x026e           	GOTO	_00164_DS_
000230   2aa9     goto    0x02a9           	GOTO	_00165_DS_
000231   2ae4     goto    0x02e4           	GOTO	_00166_DS_
000232   2b1f     goto    0x031f           	GOTO	_00167_DS_
                                           _00163_DS_:
                                           ;	.line	56; "gpio.c"	SET_REGISTER_PIN(PORTA, pin, state);
000233   1283     bcf     0x03, 0x5        	BANKSEL	r0x1007
000234   1303     bcf     0x03, 0x6        
                                           ;;120	MOVF	r0x1007,W
000235   3001     movlw   0x01             	MOVLW	0x01
000236   00ab     movwf   0x2b             	MOVWF	r0x1009
                                           ;;119	MOVF	r0x1006,W
000237   0829     movf    0x29, 0x0        	MOVF	r0x1007,W
000238   00a8     movwf   0x28             	MOVWF	r0x1006
000239   1ba8     btfsc   0x28, 0x7        	BTFSC	r0x1006,7
00023a   2a45     goto    0x0245           	GOTO	_00180_DS_
00023b   3c00     sublw   0x00             	SUBLW	0x00
00023c   1903     btfsc   0x03, 0x2        	BTFSC	STATUS,2
00023d   2a4e     goto    0x024e           	GOTO	_00178_DS_
                                           _00177_DS_:
00023e   1283     bcf     0x03, 0x5        	BANKSEL	r0x1009
00023f   1303     bcf     0x03, 0x6        
000240   0dab     rlf     0x2b, 0x1        	RLF	r0x1009,F
000241   3e01     addlw   0x01             	ADDLW	0x01
000242   1c03     btfss   0x03, 0x0        	BTFSS	STATUS,0
000243   2a3e     goto    0x023e           	GOTO	_00177_DS_
000244   2a4e     goto    0x024e           	GOTO	_00178_DS_
                                           _00180_DS_:
000245   1003     bcf     0x03, 0x0        	BCF	STATUS,0
000246   1283     bcf     0x03, 0x5        	BANKSEL	r0x1009
000247   1303     bcf     0x03, 0x6        
000248   1bab     btfsc   0x2b, 0x7        	BTFSC	r0x1009,7
000249   1403     bsf     0x03, 0x0        	BSF	STATUS,0
00024a   0cab     rrf     0x2b, 0x1        	RRF	r0x1009,F
00024b   3e01     addlw   0x01             	ADDLW	0x01
00024c   1c03     btfss   0x03, 0x0        	BTFSS	STATUS,0
00024d   2a45     goto    0x0245           	GOTO	_00180_DS_
                                           _00178_DS_:
00024e   1283     bcf     0x03, 0x5        	BANKSEL	r0x1009
00024f   1303     bcf     0x03, 0x6        
000250   092b     comf    0x2b, 0x0        	COMF	r0x1009,W
000251   00a8     movwf   0x28             	MOVWF	r0x1006
000252   1283     bcf     0x03, 0x5        	BANKSEL	_PORTA
000253   1303     bcf     0x03, 0x6        
000254   0805     movf    0x05, 0x0        	MOVF	_PORTA,W
000255   1283     bcf     0x03, 0x5        	BANKSEL	r0x1009
000256   1303     bcf     0x03, 0x6        
000257   00ab     movwf   0x2b             	MOVWF	r0x1009
000258   05a8     andwf   0x28, 0x1        	ANDWF	r0x1006,F
000259   082a     movf    0x2a, 0x0        	MOVF	r0x1008,W
00025a   00ab     movwf   0x2b             	MOVWF	r0x1009
00025b   0829     movf    0x29, 0x0        	MOVF	r0x1007,W
00025c   3c00     sublw   0x00             	SUBLW	0x00
00025d   1903     btfsc   0x03, 0x2        	BTFSC	STATUS,2
00025e   2a65     goto    0x0265           	GOTO	_00182_DS_
                                           _00181_DS_:
00025f   1283     bcf     0x03, 0x5        	BANKSEL	r0x1009
000260   1303     bcf     0x03, 0x6        
000261   0dab     rlf     0x2b, 0x1        	RLF	r0x1009,F
000262   3e01     addlw   0x01             	ADDLW	0x01
000263   1c03     btfss   0x03, 0x0        	BTFSS	STATUS,0
000264   2a5f     goto    0x025f           	GOTO	_00181_DS_
                                           _00182_DS_:
000265   1283     bcf     0x03, 0x5        	BANKSEL	r0x1009
000266   1303     bcf     0x03, 0x6        
000267   082b     movf    0x2b, 0x0        	MOVF	r0x1009,W
000268   00ac     movwf   0x2c             	MOVWF	r0x100A
000269   0428     iorwf   0x28, 0x0        	IORWF	r0x1006,W
00026a   1283     bcf     0x03, 0x5        	BANKSEL	_PORTA
00026b   1303     bcf     0x03, 0x6        
00026c   0085     movwf   0x05             	MOVWF	_PORTA
                                           ;	.line	57; "gpio.c"	break;
00026d   2b59     goto    0x0359           	GOTO	_00169_DS_
                                           ;;116	MOVF	r0x1007,W
                                           _00164_DS_:
                                           ;	.line	60; "gpio.c"	SET_REGISTER_PIN(PORTB, pin, state);
00026e   3001     movlw   0x01             	MOVLW	0x01
00026f   1283     bcf     0x03, 0x5        	BANKSEL	r0x1009
000270   1303     bcf     0x03, 0x6        
000271   00ab     movwf   0x2b             	MOVWF	r0x1009
                                           ;;115	MOVF	r0x1006,W
000272   0829     movf    0x29, 0x0        	MOVF	r0x1007,W
000273   00a8     movwf   0x28             	MOVWF	r0x1006
000274   1ba8     btfsc   0x28, 0x7        	BTFSC	r0x1006,7
000275   2a80     goto    0x0280           	GOTO	_00186_DS_
000276   3c00     sublw   0x00             	SUBLW	0x00
000277   1903     btfsc   0x03, 0x2        	BTFSC	STATUS,2
000278   2a89     goto    0x0289           	GOTO	_00184_DS_
                                           _00183_DS_:
000279   1283     bcf     0x03, 0x5        	BANKSEL	r0x1009
00027a   1303     bcf     0x03, 0x6        
00027b   0dab     rlf     0x2b, 0x1        	RLF	r0x1009,F
00027c   3e01     addlw   0x01             	ADDLW	0x01
00027d   1c03     btfss   0x03, 0x0        	BTFSS	STATUS,0
00027e   2a79     goto    0x0279           	GOTO	_00183_DS_
00027f   2a89     goto    0x0289           	GOTO	_00184_DS_
                                           _00186_DS_:
000280   1003     bcf     0x03, 0x0        	BCF	STATUS,0
000281   1283     bcf     0x03, 0x5        	BANKSEL	r0x1009
000282   1303     bcf     0x03, 0x6        
000283   1bab     btfsc   0x2b, 0x7        	BTFSC	r0x1009,7
000284   1403     bsf     0x03, 0x0        	BSF	STATUS,0
000285   0cab     rrf     0x2b, 0x1        	RRF	r0x1009,F
000286   3e01     addlw   0x01             	ADDLW	0x01
000287   1c03     btfss   0x03, 0x0        	BTFSS	STATUS,0
000288   2a80     goto    0x0280           	GOTO	_00186_DS_
                                           _00184_DS_:
000289   1283     bcf     0x03, 0x5        	BANKSEL	r0x1009
00028a   1303     bcf     0x03, 0x6        
00028b   092b     comf    0x2b, 0x0        	COMF	r0x1009,W
00028c   00a8     movwf   0x28             	MOVWF	r0x1006
00028d   1283     bcf     0x03, 0x5        	BANKSEL	_PORTB
00028e   1303     bcf     0x03, 0x6        
00028f   0806     movf    0x06, 0x0        	MOVF	_PORTB,W
000290   1283     bcf     0x03, 0x5        	BANKSEL	r0x1009
000291   1303     bcf     0x03, 0x6        
000292   00ab     movwf   0x2b             	MOVWF	r0x1009
000293   05a8     andwf   0x28, 0x1        	ANDWF	r0x1006,F
000294   082a     movf    0x2a, 0x0        	MOVF	r0x1008,W
000295   00ab     movwf   0x2b             	MOVWF	r0x1009
000296   0829     movf    0x29, 0x0        	MOVF	r0x1007,W
000297   3c00     sublw   0x00             	SUBLW	0x00
000298   1903     btfsc   0x03, 0x2        	BTFSC	STATUS,2
000299   2aa0     goto    0x02a0           	GOTO	_00188_DS_
                                           _00187_DS_:
00029a   1283     bcf     0x03, 0x5        	BANKSEL	r0x1009
00029b   1303     bcf     0x03, 0x6        
00029c   0dab     rlf     0x2b, 0x1        	RLF	r0x1009,F
00029d   3e01     addlw   0x01             	ADDLW	0x01
00029e   1c03     btfss   0x03, 0x0        	BTFSS	STATUS,0
00029f   2a9a     goto    0x029a           	GOTO	_00187_DS_
                                           _00188_DS_:
0002a0   1283     bcf     0x03, 0x5        	BANKSEL	r0x1009
0002a1   1303     bcf     0x03, 0x6        
0002a2   082b     movf    0x2b, 0x0        	MOVF	r0x1009,W
0002a3   00ac     movwf   0x2c             	MOVWF	r0x100A
0002a4   0428     iorwf   0x28, 0x0        	IORWF	r0x1006,W
0002a5   1283     bcf     0x03, 0x5        	BANKSEL	_PORTB
0002a6   1303     bcf     0x03, 0x6        
0002a7   0086     movwf   0x06             	MOVWF	_PORTB
                                           ;	.line	61; "gpio.c"	break;
0002a8   2b59     goto    0x0359           	GOTO	_00169_DS_
                                           ;;112	MOVF	r0x1007,W
                                           _00165_DS_:
                                           ;	.line	64; "gpio.c"	SET_REGISTER_PIN(PORTC, pin, state);
0002a9   3001     movlw   0x01             	MOVLW	0x01
0002aa   1283     bcf     0x03, 0x5        	BANKSEL	r0x1009
0002ab   1303     bcf     0x03, 0x6        
0002ac   00ab     movwf   0x2b             	MOVWF	r0x1009
                                           ;;111	MOVF	r0x1006,W
0002ad   0829     movf    0x29, 0x0        	MOVF	r0x1007,W
0002ae   00a8     movwf   0x28             	MOVWF	r0x1006
0002af   1ba8     btfsc   0x28, 0x7        	BTFSC	r0x1006,7
0002b0   2abb     goto    0x02bb           	GOTO	_00192_DS_
0002b1   3c00     sublw   0x00             	SUBLW	0x00
0002b2   1903     btfsc   0x03, 0x2        	BTFSC	STATUS,2
0002b3   2ac4     goto    0x02c4           	GOTO	_00190_DS_
                                           _00189_DS_:
0002b4   1283     bcf     0x03, 0x5        	BANKSEL	r0x1009
0002b5   1303     bcf     0x03, 0x6        
0002b6   0dab     rlf     0x2b, 0x1        	RLF	r0x1009,F
0002b7   3e01     addlw   0x01             	ADDLW	0x01
0002b8   1c03     btfss   0x03, 0x0        	BTFSS	STATUS,0
0002b9   2ab4     goto    0x02b4           	GOTO	_00189_DS_
0002ba   2ac4     goto    0x02c4           	GOTO	_00190_DS_
                                           _00192_DS_:
0002bb   1003     bcf     0x03, 0x0        	BCF	STATUS,0
0002bc   1283     bcf     0x03, 0x5        	BANKSEL	r0x1009
0002bd   1303     bcf     0x03, 0x6        
0002be   1bab     btfsc   0x2b, 0x7        	BTFSC	r0x1009,7
0002bf   1403     bsf     0x03, 0x0        	BSF	STATUS,0
0002c0   0cab     rrf     0x2b, 0x1        	RRF	r0x1009,F
0002c1   3e01     addlw   0x01             	ADDLW	0x01
0002c2   1c03     btfss   0x03, 0x0        	BTFSS	STATUS,0
0002c3   2abb     goto    0x02bb           	GOTO	_00192_DS_
                                           _00190_DS_:
0002c4   1283     bcf     0x03, 0x5        	BANKSEL	r0x1009
0002c5   1303     bcf     0x03, 0x6        
0002c6   092b     comf    0x2b, 0x0        	COMF	r0x1009,W
0002c7   00a8     movwf   0x28             	MOVWF	r0x1006
0002c8   1283     bcf     0x03, 0x5        	BANKSEL	_PORTC
0002c9   1303     bcf     0x03, 0x6        
0002ca   0807     movf    0x07, 0x0        	MOVF	_PORTC,W
0002cb   1283     bcf     0x03, 0x5        	BANKSEL	r0x1009
0002cc   1303     bcf     0x03, 0x6        
0002cd   00ab     movwf   0x2b             	MOVWF	r0x1009
0002ce   05a8     andwf   0x28, 0x1        	ANDWF	r0x1006,F
0002cf   082a     movf    0x2a, 0x0        	MOVF	r0x1008,W
0002d0   00ab     movwf   0x2b             	MOVWF	r0x1009
0002d1   0829     movf    0x29, 0x0        	MOVF	r0x1007,W
0002d2   3c00     sublw   0x00             	SUBLW	0x00
0002d3   1903     btfsc   0x03, 0x2        	BTFSC	STATUS,2
0002d4   2adb     goto    0x02db           	GOTO	_00194_DS_
                                           _00193_DS_:
0002d5   1283     bcf     0x03, 0x5        	BANKSEL	r0x1009
0002d6   1303     bcf     0x03, 0x6        
0002d7   0dab     rlf     0x2b, 0x1        	RLF	r0x1009,F
0002d8   3e01     addlw   0x01             	ADDLW	0x01
0002d9   1c03     btfss   0x03, 0x0        	BTFSS	STATUS,0
0002da   2ad5     goto    0x02d5           	GOTO	_00193_DS_
                                           _00194_DS_:
0002db   1283     bcf     0x03, 0x5        	BANKSEL	r0x1009
0002dc   1303     bcf     0x03, 0x6        
0002dd   082b     movf    0x2b, 0x0        	MOVF	r0x1009,W
0002de   00ac     movwf   0x2c             	MOVWF	r0x100A
0002df   0428     iorwf   0x28, 0x0        	IORWF	r0x1006,W
0002e0   1283     bcf     0x03, 0x5        	BANKSEL	_PORTC
0002e1   1303     bcf     0x03, 0x6        
0002e2   0087     movwf   0x07             	MOVWF	_PORTC
                                           ;	.line	65; "gpio.c"	break;
0002e3   2b59     goto    0x0359           	GOTO	_00169_DS_
                                           ;;108	MOVF	r0x1007,W
                                           _00166_DS_:
                                           ;	.line	68; "gpio.c"	SET_REGISTER_PIN(PORTD, pin, state);
0002e4   3001     movlw   0x01             	MOVLW	0x01
0002e5   1283     bcf     0x03, 0x5        	BANKSEL	r0x1009
0002e6   1303     bcf     0x03, 0x6        
0002e7   00ab     movwf   0x2b             	MOVWF	r0x1009
                                           ;;107	MOVF	r0x1006,W
0002e8   0829     movf    0x29, 0x0        	MOVF	r0x1007,W
0002e9   00a8     movwf   0x28             	MOVWF	r0x1006
0002ea   1ba8     btfsc   0x28, 0x7        	BTFSC	r0x1006,7
0002eb   2af6     goto    0x02f6           	GOTO	_00198_DS_
0002ec   3c00     sublw   0x00             	SUBLW	0x00
0002ed   1903     btfsc   0x03, 0x2        	BTFSC	STATUS,2
0002ee   2aff     goto    0x02ff           	GOTO	_00196_DS_
                                           _00195_DS_:
0002ef   1283     bcf     0x03, 0x5        	BANKSEL	r0x1009
0002f0   1303     bcf     0x03, 0x6        
0002f1   0dab     rlf     0x2b, 0x1        	RLF	r0x1009,F
0002f2   3e01     addlw   0x01             	ADDLW	0x01
0002f3   1c03     btfss   0x03, 0x0        	BTFSS	STATUS,0
0002f4   2aef     goto    0x02ef           	GOTO	_00195_DS_
0002f5   2aff     goto    0x02ff           	GOTO	_00196_DS_
                                           _00198_DS_:
0002f6   1003     bcf     0x03, 0x0        	BCF	STATUS,0
0002f7   1283     bcf     0x03, 0x5        	BANKSEL	r0x1009
0002f8   1303     bcf     0x03, 0x6        
0002f9   1bab     btfsc   0x2b, 0x7        	BTFSC	r0x1009,7
0002fa   1403     bsf     0x03, 0x0        	BSF	STATUS,0
0002fb   0cab     rrf     0x2b, 0x1        	RRF	r0x1009,F
0002fc   3e01     addlw   0x01             	ADDLW	0x01
0002fd   1c03     btfss   0x03, 0x0        	BTFSS	STATUS,0
0002fe   2af6     goto    0x02f6           	GOTO	_00198_DS_
                                           _00196_DS_:
0002ff   1283     bcf     0x03, 0x5        	BANKSEL	r0x1009
000300   1303     bcf     0x03, 0x6        
000301   092b     comf    0x2b, 0x0        	COMF	r0x1009,W
000302   00a8     movwf   0x28             	MOVWF	r0x1006
000303   1283     bcf     0x03, 0x5        	BANKSEL	_PORTD
000304   1303     bcf     0x03, 0x6        
000305   0808     movf    0x08, 0x0        	MOVF	_PORTD,W
000306   1283     bcf     0x03, 0x5        	BANKSEL	r0x1009
000307   1303     bcf     0x03, 0x6        
000308   00ab     movwf   0x2b             	MOVWF	r0x1009
000309   05a8     andwf   0x28, 0x1        	ANDWF	r0x1006,F
00030a   082a     movf    0x2a, 0x0        	MOVF	r0x1008,W
00030b   00ab     movwf   0x2b             	MOVWF	r0x1009
00030c   0829     movf    0x29, 0x0        	MOVF	r0x1007,W
00030d   3c00     sublw   0x00             	SUBLW	0x00
00030e   1903     btfsc   0x03, 0x2        	BTFSC	STATUS,2
00030f   2b16     goto    0x0316           	GOTO	_00200_DS_
                                           _00199_DS_:
000310   1283     bcf     0x03, 0x5        	BANKSEL	r0x1009
000311   1303     bcf     0x03, 0x6        
000312   0dab     rlf     0x2b, 0x1        	RLF	r0x1009,F
000313   3e01     addlw   0x01             	ADDLW	0x01
000314   1c03     btfss   0x03, 0x0        	BTFSS	STATUS,0
000315   2b10     goto    0x0310           	GOTO	_00199_DS_
                                           _00200_DS_:
000316   1283     bcf     0x03, 0x5        	BANKSEL	r0x1009
000317   1303     bcf     0x03, 0x6        
000318   082b     movf    0x2b, 0x0        	MOVF	r0x1009,W
000319   00ac     movwf   0x2c             	MOVWF	r0x100A
00031a   0428     iorwf   0x28, 0x0        	IORWF	r0x1006,W
00031b   1283     bcf     0x03, 0x5        	BANKSEL	_PORTD
00031c   1303     bcf     0x03, 0x6        
00031d   0088     movwf   0x08             	MOVWF	_PORTD
                                           ;	.line	69; "gpio.c"	break;
00031e   2b59     goto    0x0359           	GOTO	_00169_DS_
                                           ;;102	MOVF	r0x1007,W
                                           _00167_DS_:
                                           ;	.line	72; "gpio.c"	SET_REGISTER_PIN(PORTE, pin, state);
00031f   3001     movlw   0x01             	MOVLW	0x01
000320   1283     bcf     0x03, 0x5        	BANKSEL	r0x1009
000321   1303     bcf     0x03, 0x6        
000322   00ab     movwf   0x2b             	MOVWF	r0x1009
                                           ;;101	MOVF	r0x1006,W
000323   0829     movf    0x29, 0x0        	MOVF	r0x1007,W
000324   00a8     movwf   0x28             	MOVWF	r0x1006
000325   1ba8     btfsc   0x28, 0x7        	BTFSC	r0x1006,7
000326   2b31     goto    0x0331           	GOTO	_00204_DS_
000327   3c00     sublw   0x00             	SUBLW	0x00
000328   1903     btfsc   0x03, 0x2        	BTFSC	STATUS,2
000329   2b3a     goto    0x033a           	GOTO	_00202_DS_
                                           _00201_DS_:
00032a   1283     bcf     0x03, 0x5        	BANKSEL	r0x1009
00032b   1303     bcf     0x03, 0x6        
00032c   0dab     rlf     0x2b, 0x1        	RLF	r0x1009,F
00032d   3e01     addlw   0x01             	ADDLW	0x01
00032e   1c03     btfss   0x03, 0x0        	BTFSS	STATUS,0
00032f   2b2a     goto    0x032a           	GOTO	_00201_DS_
000330   2b3a     goto    0x033a           	GOTO	_00202_DS_
                                           _00204_DS_:
000331   1003     bcf     0x03, 0x0        	BCF	STATUS,0
000332   1283     bcf     0x03, 0x5        	BANKSEL	r0x1009
000333   1303     bcf     0x03, 0x6        
000334   1bab     btfsc   0x2b, 0x7        	BTFSC	r0x1009,7
000335   1403     bsf     0x03, 0x0        	BSF	STATUS,0
000336   0cab     rrf     0x2b, 0x1        	RRF	r0x1009,F
000337   3e01     addlw   0x01             	ADDLW	0x01
000338   1c03     btfss   0x03, 0x0        	BTFSS	STATUS,0
000339   2b31     goto    0x0331           	GOTO	_00204_DS_
                                           _00202_DS_:
00033a   1283     bcf     0x03, 0x5        	BANKSEL	r0x1009
00033b   1303     bcf     0x03, 0x6        
00033c   092b     comf    0x2b, 0x0        	COMF	r0x1009,W
00033d   00a8     movwf   0x28             	MOVWF	r0x1006
00033e   1283     bcf     0x03, 0x5        	BANKSEL	_PORTE
00033f   1303     bcf     0x03, 0x6        
000340   0809     movf    0x09, 0x0        	MOVF	_PORTE,W
000341   1283     bcf     0x03, 0x5        	BANKSEL	r0x1009
000342   1303     bcf     0x03, 0x6        
000343   00ab     movwf   0x2b             	MOVWF	r0x1009
000344   05a8     andwf   0x28, 0x1        	ANDWF	r0x1006,F
000345   082a     movf    0x2a, 0x0        	MOVF	r0x1008,W
000346   00ab     movwf   0x2b             	MOVWF	r0x1009
000347   0829     movf    0x29, 0x0        	MOVF	r0x1007,W
000348   3c00     sublw   0x00             	SUBLW	0x00
000349   1903     btfsc   0x03, 0x2        	BTFSC	STATUS,2
00034a   2b51     goto    0x0351           	GOTO	_00206_DS_
                                           _00205_DS_:
00034b   1283     bcf     0x03, 0x5        	BANKSEL	r0x1009
00034c   1303     bcf     0x03, 0x6        
00034d   0dab     rlf     0x2b, 0x1        	RLF	r0x1009,F
00034e   3e01     addlw   0x01             	ADDLW	0x01
00034f   1c03     btfss   0x03, 0x0        	BTFSS	STATUS,0
000350   2b4b     goto    0x034b           	GOTO	_00205_DS_
                                           _00206_DS_:
000351   1283     bcf     0x03, 0x5        	BANKSEL	r0x1009
000352   1303     bcf     0x03, 0x6        
000353   082b     movf    0x2b, 0x0        	MOVF	r0x1009,W
000354   00a9     movwf   0x29             	MOVWF	r0x1007
000355   0428     iorwf   0x28, 0x0        	IORWF	r0x1006,W
000356   1283     bcf     0x03, 0x5        	BANKSEL	_PORTE
000357   1303     bcf     0x03, 0x6        
000358   0089     movwf   0x09             	MOVWF	_PORTE
                                           _00169_DS_:
                                           ;	.line	75; "gpio.c"	}
000359   0008     return                   	RETURN	
                                           ; exit point of _GPIO_SetPortPinState

                                           ;***
                                           ;  pBlock Stats: dbName = C
                                           ;***
                                           ;has an exit
                                           ;; Starting pCode block
                                           S_gpio__GPIO_Update	code
                                           _GPIO_Update:
                                           ; 2 exit points
                                           ;	.line	48; "gpio.c"	{ /* Should do nothing */ }
000fde   0008     return                   	RETURN	
                                           ; exit point of _GPIO_Update

                                           ;***
                                           ;  pBlock Stats: dbName = C
                                           ;***
                                           ;has an exit
                                           ;functions called:
                                           ;   _GPIO_InitPortPin
                                           ;   _GPIO_InitPortPin
                                           ;5 compiler assigned registers:
                                           ;   r0x1017
                                           ;   STK00
                                           ;   r0x1018
                                           ;   r0x1019
                                           ;   STK01
                                           ;; Starting pCode block
                                           S_gpio__GPIO_InitPort	code
                                           _GPIO_InitPort:
                                           ; 2 exit points
                                           ;	.line	37; "gpio.c"	void GPIO_InitPort(tPort port, tPortDirection direction)
000f2d   1283     bcf     0x03, 0x5        	BANKSEL	r0x1017
000f2e   1303     bcf     0x03, 0x6        
000f2f   00a5     movwf   0x25             	MOVWF	r0x1017
000f30   087f     movf    0x7f, 0x0        	MOVF	STK00,W
000f31   00a6     movwf   0x26             	MOVWF	r0x1018
                                           ;	.line	41; "gpio.c"	for (i = 0; i < 8; i++)
000f32   01a7     clrf    0x27             	CLRF	r0x1019
                                           _00154_DS_:
                                           ;	.line	43; "gpio.c"	GPIO_InitPortPin(port, i, direction);
000f33   1283     bcf     0x03, 0x5        	BANKSEL	r0x1018
000f34   1303     bcf     0x03, 0x6        
000f35   0826     movf    0x26, 0x0        	MOVF	r0x1018,W
000f36   00fe     movwf   0x7e             	MOVWF	STK01
000f37   0827     movf    0x27, 0x0        	MOVF	r0x1019,W
000f38   00ff     movwf   0x7f             	MOVWF	STK00
000f39   0825     movf    0x25, 0x0        	MOVF	r0x1017,W
000f3a   118a     bcf     0x0a, 0x3        	PAGESEL	_GPIO_InitPortPin
000f3b   120a     bcf     0x0a, 0x4        
000f3c   235a     call    0x035a           	CALL	_GPIO_InitPortPin
000f3d   158a     bsf     0x0a, 0x3        	PAGESEL	$
000f3e   120a     bcf     0x0a, 0x4        
                                           ;	.line	41; "gpio.c"	for (i = 0; i < 8; i++)
000f3f   1283     bcf     0x03, 0x5        	BANKSEL	r0x1019
000f40   1303     bcf     0x03, 0x6        
000f41   0aa7     incf    0x27, 0x1        	INCF	r0x1019,F
                                           ;;unsigned compare: left < lit(0x8=8), size=1
000f42   3008     movlw   0x08             	MOVLW	0x08
000f43   0227     subwf   0x27, 0x0        	SUBWF	r0x1019,W
000f44   1c03     btfss   0x03, 0x0        	BTFSS	STATUS,0
000f45   2f33     goto    0x0733           	GOTO	_00154_DS_
                                           ;;genSkipc:3307: created from rifx:00000000047A57B0
                                           ;	.line	45; "gpio.c"	}
000f46   0008     return                   	RETURN	
                                           ; exit point of _GPIO_InitPort

                                           ;***
                                           ;  pBlock Stats: dbName = C
                                           ;***
                                           ;has an exit
                                           ;7 compiler assigned registers:
                                           ;   r0x1012
                                           ;   STK00
                                           ;   r0x1013
                                           ;   STK01
                                           ;   r0x1014
                                           ;   r0x1015
                                           ;   r0x1016
                                           ;; Starting pCode block
                                           S_gpio__GPIO_InitPortPin	code
                                           _GPIO_InitPortPin:
                                           ; 2 exit points
                                           ;	.line	9; "gpio.c"	void GPIO_InitPortPin(tPort port, unsigned char pin, tPortDirection direction)
00035a   1283     bcf     0x03, 0x5        	BANKSEL	r0x1012
00035b   1303     bcf     0x03, 0x6        
00035c   00a0     movwf   0x20             	MOVWF	r0x1012
00035d   087f     movf    0x7f, 0x0        	MOVF	STK00,W
00035e   00a1     movwf   0x21             	MOVWF	r0x1013
00035f   087e     movf    0x7e, 0x0        	MOVF	STK01,W
000360   00a2     movwf   0x22             	MOVWF	r0x1014
                                           ;;swapping arguments (AOP_TYPEs 1/2)
                                           ;;unsigned compare: left >= lit(0x5=5), size=1
                                           ;	.line	11; "gpio.c"	switch(port)
000361   3005     movlw   0x05             	MOVLW	0x05
000362   0220     subwf   0x20, 0x0        	SUBWF	r0x1012,W
000363   1803     btfsc   0x03, 0x0        	BTFSC	STATUS,0
000364   2c9e     goto    0x049e           	GOTO	_00111_DS_
                                           ;;genSkipc:3307: created from rifx:00000000047A57B0
000365   3003     movlw   0x03             	MOVLW	HIGH(_00118_DS_)
000366   1283     bcf     0x03, 0x5        	BANKSEL	PCLATH
000367   1303     bcf     0x03, 0x6        
000368   008a     movwf   0x0a             	MOVWF	PCLATH
000369   3073     movlw   0x73             	MOVLW	_00118_DS_
00036a   1283     bcf     0x03, 0x5        	BANKSEL	r0x1012
00036b   1303     bcf     0x03, 0x6        
00036c   0720     addwf   0x20, 0x0        	ADDWF	r0x1012,W
00036d   1c03     btfss   0x03, 0x0        	BTFSS	STATUS,0
00036e   2b72     goto    0x0372           	GOTO	_00003_DS_
00036f   1283     bcf     0x03, 0x5        	BANKSEL	PCLATH
000370   1303     bcf     0x03, 0x6        
000371   0a8a     incf    0x0a, 0x1        	INCF	PCLATH,F
                                           _00003_DS_:
000372   0082     movwf   0x02             	MOVWF	PCL
                                           _00118_DS_:
000373   2b78     goto    0x0378           	GOTO	_00105_DS_
000374   2bb3     goto    0x03b3           	GOTO	_00106_DS_
000375   2bee     goto    0x03ee           	GOTO	_00107_DS_
000376   2c29     goto    0x0429           	GOTO	_00108_DS_
000377   2c64     goto    0x0464           	GOTO	_00109_DS_
                                           _00105_DS_:
                                           ;	.line	14; "gpio.c"	SET_REGISTER_PIN(TRISA, pin, direction);
000378   1283     bcf     0x03, 0x5        	BANKSEL	r0x1013
000379   1303     bcf     0x03, 0x6        
                                           ;;118	MOVF	r0x1013,W
00037a   3001     movlw   0x01             	MOVLW	0x01
00037b   00a3     movwf   0x23             	MOVWF	r0x1015
                                           ;;117	MOVF	r0x1012,W
00037c   0821     movf    0x21, 0x0        	MOVF	r0x1013,W
00037d   00a0     movwf   0x20             	MOVWF	r0x1012
00037e   1ba0     btfsc   0x20, 0x7        	BTFSC	r0x1012,7
00037f   2b8a     goto    0x038a           	GOTO	_00122_DS_
000380   3c00     sublw   0x00             	SUBLW	0x00
000381   1903     btfsc   0x03, 0x2        	BTFSC	STATUS,2
000382   2b93     goto    0x0393           	GOTO	_00120_DS_
                                           _00119_DS_:
000383   1283     bcf     0x03, 0x5        	BANKSEL	r0x1015
000384   1303     bcf     0x03, 0x6        
000385   0da3     rlf     0x23, 0x1        	RLF	r0x1015,F
000386   3e01     addlw   0x01             	ADDLW	0x01
000387   1c03     btfss   0x03, 0x0        	BTFSS	STATUS,0
000388   2b83     goto    0x0383           	GOTO	_00119_DS_
000389   2b93     goto    0x0393           	GOTO	_00120_DS_
                                           _00122_DS_:
00038a   1003     bcf     0x03, 0x0        	BCF	STATUS,0
00038b   1283     bcf     0x03, 0x5        	BANKSEL	r0x1015
00038c   1303     bcf     0x03, 0x6        
00038d   1ba3     btfsc   0x23, 0x7        	BTFSC	r0x1015,7
00038e   1403     bsf     0x03, 0x0        	BSF	STATUS,0
00038f   0ca3     rrf     0x23, 0x1        	RRF	r0x1015,F
000390   3e01     addlw   0x01             	ADDLW	0x01
000391   1c03     btfss   0x03, 0x0        	BTFSS	STATUS,0
000392   2b8a     goto    0x038a           	GOTO	_00122_DS_
                                           _00120_DS_:
000393   1283     bcf     0x03, 0x5        	BANKSEL	r0x1015
000394   1303     bcf     0x03, 0x6        
000395   0923     comf    0x23, 0x0        	COMF	r0x1015,W
000396   00a0     movwf   0x20             	MOVWF	r0x1012
000397   1683     bsf     0x03, 0x5        	BANKSEL	_TRISA
000398   1303     bcf     0x03, 0x6        
000399   0805     movf    0x05, 0x0        	MOVF	_TRISA,W
00039a   1283     bcf     0x03, 0x5        	BANKSEL	r0x1015
00039b   1303     bcf     0x03, 0x6        
00039c   00a3     movwf   0x23             	MOVWF	r0x1015
00039d   05a0     andwf   0x20, 0x1        	ANDWF	r0x1012,F
00039e   0822     movf    0x22, 0x0        	MOVF	r0x1014,W
00039f   00a3     movwf   0x23             	MOVWF	r0x1015
0003a0   0821     movf    0x21, 0x0        	MOVF	r0x1013,W
0003a1   3c00     sublw   0x00             	SUBLW	0x00
0003a2   1903     btfsc   0x03, 0x2        	BTFSC	STATUS,2
0003a3   2baa     goto    0x03aa           	GOTO	_00124_DS_
                                           _00123_DS_:
0003a4   1283     bcf     0x03, 0x5        	BANKSEL	r0x1015
0003a5   1303     bcf     0x03, 0x6        
0003a6   0da3     rlf     0x23, 0x1        	RLF	r0x1015,F
0003a7   3e01     addlw   0x01             	ADDLW	0x01
0003a8   1c03     btfss   0x03, 0x0        	BTFSS	STATUS,0
0003a9   2ba4     goto    0x03a4           	GOTO	_00123_DS_
                                           _00124_DS_:
0003aa   1283     bcf     0x03, 0x5        	BANKSEL	r0x1015
0003ab   1303     bcf     0x03, 0x6        
0003ac   0823     movf    0x23, 0x0        	MOVF	r0x1015,W
0003ad   00a4     movwf   0x24             	MOVWF	r0x1016
0003ae   0420     iorwf   0x20, 0x0        	IORWF	r0x1012,W
0003af   1683     bsf     0x03, 0x5        	BANKSEL	_TRISA
0003b0   1303     bcf     0x03, 0x6        
0003b1   0085     movwf   0x05             	MOVWF	_TRISA
                                           ;	.line	15; "gpio.c"	break;
0003b2   2c9e     goto    0x049e           	GOTO	_00111_DS_
                                           ;;114	MOVF	r0x1013,W
                                           _00106_DS_:
                                           ;	.line	18; "gpio.c"	SET_REGISTER_PIN(TRISB, pin, direction);
0003b3   3001     movlw   0x01             	MOVLW	0x01
0003b4   1283     bcf     0x03, 0x5        	BANKSEL	r0x1015
0003b5   1303     bcf     0x03, 0x6        
0003b6   00a3     movwf   0x23             	MOVWF	r0x1015
                                           ;;113	MOVF	r0x1012,W
0003b7   0821     movf    0x21, 0x0        	MOVF	r0x1013,W
0003b8   00a0     movwf   0x20             	MOVWF	r0x1012
0003b9   1ba0     btfsc   0x20, 0x7        	BTFSC	r0x1012,7
0003ba   2bc5     goto    0x03c5           	GOTO	_00128_DS_
0003bb   3c00     sublw   0x00             	SUBLW	0x00
0003bc   1903     btfsc   0x03, 0x2        	BTFSC	STATUS,2
0003bd   2bce     goto    0x03ce           	GOTO	_00126_DS_
                                           _00125_DS_:
0003be   1283     bcf     0x03, 0x5        	BANKSEL	r0x1015
0003bf   1303     bcf     0x03, 0x6        
0003c0   0da3     rlf     0x23, 0x1        	RLF	r0x1015,F
0003c1   3e01     addlw   0x01             	ADDLW	0x01
0003c2   1c03     btfss   0x03, 0x0        	BTFSS	STATUS,0
0003c3   2bbe     goto    0x03be           	GOTO	_00125_DS_
0003c4   2bce     goto    0x03ce           	GOTO	_00126_DS_
                                           _00128_DS_:
0003c5   1003     bcf     0x03, 0x0        	BCF	STATUS,0
0003c6   1283     bcf     0x03, 0x5        	BANKSEL	r0x1015
0003c7   1303     bcf     0x03, 0x6        
0003c8   1ba3     btfsc   0x23, 0x7        	BTFSC	r0x1015,7
0003c9   1403     bsf     0x03, 0x0        	BSF	STATUS,0
0003ca   0ca3     rrf     0x23, 0x1        	RRF	r0x1015,F
0003cb   3e01     addlw   0x01             	ADDLW	0x01
0003cc   1c03     btfss   0x03, 0x0        	BTFSS	STATUS,0
0003cd   2bc5     goto    0x03c5           	GOTO	_00128_DS_
                                           _00126_DS_:
0003ce   1283     bcf     0x03, 0x5        	BANKSEL	r0x1015
0003cf   1303     bcf     0x03, 0x6        
0003d0   0923     comf    0x23, 0x0        	COMF	r0x1015,W
0003d1   00a0     movwf   0x20             	MOVWF	r0x1012
0003d2   1683     bsf     0x03, 0x5        	BANKSEL	_TRISB
0003d3   1303     bcf     0x03, 0x6        
0003d4   0806     movf    0x06, 0x0        	MOVF	_TRISB,W
0003d5   1283     bcf     0x03, 0x5        	BANKSEL	r0x1015
0003d6   1303     bcf     0x03, 0x6        
0003d7   00a3     movwf   0x23             	MOVWF	r0x1015
0003d8   05a0     andwf   0x20, 0x1        	ANDWF	r0x1012,F
0003d9   0822     movf    0x22, 0x0        	MOVF	r0x1014,W
0003da   00a3     movwf   0x23             	MOVWF	r0x1015
0003db   0821     movf    0x21, 0x0        	MOVF	r0x1013,W
0003dc   3c00     sublw   0x00             	SUBLW	0x00
0003dd   1903     btfsc   0x03, 0x2        	BTFSC	STATUS,2
0003de   2be5     goto    0x03e5           	GOTO	_00130_DS_
                                           _00129_DS_:
0003df   1283     bcf     0x03, 0x5        	BANKSEL	r0x1015
0003e0   1303     bcf     0x03, 0x6        
0003e1   0da3     rlf     0x23, 0x1        	RLF	r0x1015,F
0003e2   3e01     addlw   0x01             	ADDLW	0x01
0003e3   1c03     btfss   0x03, 0x0        	BTFSS	STATUS,0
0003e4   2bdf     goto    0x03df           	GOTO	_00129_DS_
                                           _00130_DS_:
0003e5   1283     bcf     0x03, 0x5        	BANKSEL	r0x1015
0003e6   1303     bcf     0x03, 0x6        
0003e7   0823     movf    0x23, 0x0        	MOVF	r0x1015,W
0003e8   00a4     movwf   0x24             	MOVWF	r0x1016
0003e9   0420     iorwf   0x20, 0x0        	IORWF	r0x1012,W
0003ea   1683     bsf     0x03, 0x5        	BANKSEL	_TRISB
0003eb   1303     bcf     0x03, 0x6        
0003ec   0086     movwf   0x06             	MOVWF	_TRISB
                                           ;	.line	19; "gpio.c"	break;
0003ed   2c9e     goto    0x049e           	GOTO	_00111_DS_
                                           ;;110	MOVF	r0x1013,W
                                           _00107_DS_:
                                           ;	.line	22; "gpio.c"	SET_REGISTER_PIN(TRISC, pin, direction);
0003ee   3001     movlw   0x01             	MOVLW	0x01
0003ef   1283     bcf     0x03, 0x5        	BANKSEL	r0x1015
0003f0   1303     bcf     0x03, 0x6        
0003f1   00a3     movwf   0x23             	MOVWF	r0x1015
                                           ;;109	MOVF	r0x1012,W
0003f2   0821     movf    0x21, 0x0        	MOVF	r0x1013,W
0003f3   00a0     movwf   0x20             	MOVWF	r0x1012
0003f4   1ba0     btfsc   0x20, 0x7        	BTFSC	r0x1012,7
0003f5   2c00     goto    0x0400           	GOTO	_00134_DS_
0003f6   3c00     sublw   0x00             	SUBLW	0x00
0003f7   1903     btfsc   0x03, 0x2        	BTFSC	STATUS,2
0003f8   2c09     goto    0x0409           	GOTO	_00132_DS_
                                           _00131_DS_:
0003f9   1283     bcf     0x03, 0x5        	BANKSEL	r0x1015
0003fa   1303     bcf     0x03, 0x6        
0003fb   0da3     rlf     0x23, 0x1        	RLF	r0x1015,F
0003fc   3e01     addlw   0x01             	ADDLW	0x01
0003fd   1c03     btfss   0x03, 0x0        	BTFSS	STATUS,0
0003fe   2bf9     goto    0x03f9           	GOTO	_00131_DS_
0003ff   2c09     goto    0x0409           	GOTO	_00132_DS_
                                           _00134_DS_:
000400   1003     bcf     0x03, 0x0        	BCF	STATUS,0
000401   1283     bcf     0x03, 0x5        	BANKSEL	r0x1015
000402   1303     bcf     0x03, 0x6        
000403   1ba3     btfsc   0x23, 0x7        	BTFSC	r0x1015,7
000404   1403     bsf     0x03, 0x0        	BSF	STATUS,0
000405   0ca3     rrf     0x23, 0x1        	RRF	r0x1015,F
000406   3e01     addlw   0x01             	ADDLW	0x01
000407   1c03     btfss   0x03, 0x0        	BTFSS	STATUS,0
000408   2c00     goto    0x0400           	GOTO	_00134_DS_
                                           _00132_DS_:
000409   1283     bcf     0x03, 0x5        	BANKSEL	r0x1015
00040a   1303     bcf     0x03, 0x6        
00040b   0923     comf    0x23, 0x0        	COMF	r0x1015,W
00040c   00a0     movwf   0x20             	MOVWF	r0x1012
00040d   1683     bsf     0x03, 0x5        	BANKSEL	_TRISC
00040e   1303     bcf     0x03, 0x6        
00040f   0807     movf    0x07, 0x0        	MOVF	_TRISC,W
000410   1283     bcf     0x03, 0x5        	BANKSEL	r0x1015
000411   1303     bcf     0x03, 0x6        
000412   00a3     movwf   0x23             	MOVWF	r0x1015
000413   05a0     andwf   0x20, 0x1        	ANDWF	r0x1012,F
000414   0822     movf    0x22, 0x0        	MOVF	r0x1014,W
000415   00a3     movwf   0x23             	MOVWF	r0x1015
000416   0821     movf    0x21, 0x0        	MOVF	r0x1013,W
000417   3c00     sublw   0x00             	SUBLW	0x00
000418   1903     btfsc   0x03, 0x2        	BTFSC	STATUS,2
000419   2c20     goto    0x0420           	GOTO	_00136_DS_
                                           _00135_DS_:
00041a   1283     bcf     0x03, 0x5        	BANKSEL	r0x1015
00041b   1303     bcf     0x03, 0x6        
00041c   0da3     rlf     0x23, 0x1        	RLF	r0x1015,F
00041d   3e01     addlw   0x01             	ADDLW	0x01
00041e   1c03     btfss   0x03, 0x0        	BTFSS	STATUS,0
00041f   2c1a     goto    0x041a           	GOTO	_00135_DS_
                                           _00136_DS_:
000420   1283     bcf     0x03, 0x5        	BANKSEL	r0x1015
000421   1303     bcf     0x03, 0x6        
000422   0823     movf    0x23, 0x0        	MOVF	r0x1015,W
000423   00a4     movwf   0x24             	MOVWF	r0x1016
000424   0420     iorwf   0x20, 0x0        	IORWF	r0x1012,W
000425   1683     bsf     0x03, 0x5        	BANKSEL	_TRISC
000426   1303     bcf     0x03, 0x6        
000427   0087     movwf   0x07             	MOVWF	_TRISC
                                           ;	.line	23; "gpio.c"	break;
000428   2c9e     goto    0x049e           	GOTO	_00111_DS_
                                           ;;106	MOVF	r0x1013,W
                                           _00108_DS_:
                                           ;	.line	26; "gpio.c"	SET_REGISTER_PIN(TRISD, pin, direction);
000429   3001     movlw   0x01             	MOVLW	0x01
00042a   1283     bcf     0x03, 0x5        	BANKSEL	r0x1015
00042b   1303     bcf     0x03, 0x6        
00042c   00a3     movwf   0x23             	MOVWF	r0x1015
                                           ;;105	MOVF	r0x1012,W
00042d   0821     movf    0x21, 0x0        	MOVF	r0x1013,W
00042e   00a0     movwf   0x20             	MOVWF	r0x1012
00042f   1ba0     btfsc   0x20, 0x7        	BTFSC	r0x1012,7
000430   2c3b     goto    0x043b           	GOTO	_00140_DS_
000431   3c00     sublw   0x00             	SUBLW	0x00
000432   1903     btfsc   0x03, 0x2        	BTFSC	STATUS,2
000433   2c44     goto    0x0444           	GOTO	_00138_DS_
                                           _00137_DS_:
000434   1283     bcf     0x03, 0x5        	BANKSEL	r0x1015
000435   1303     bcf     0x03, 0x6        
000436   0da3     rlf     0x23, 0x1        	RLF	r0x1015,F
000437   3e01     addlw   0x01             	ADDLW	0x01
000438   1c03     btfss   0x03, 0x0        	BTFSS	STATUS,0
000439   2c34     goto    0x0434           	GOTO	_00137_DS_
00043a   2c44     goto    0x0444           	GOTO	_00138_DS_
                                           _00140_DS_:
00043b   1003     bcf     0x03, 0x0        	BCF	STATUS,0
00043c   1283     bcf     0x03, 0x5        	BANKSEL	r0x1015
00043d   1303     bcf     0x03, 0x6        
00043e   1ba3     btfsc   0x23, 0x7        	BTFSC	r0x1015,7
00043f   1403     bsf     0x03, 0x0        	BSF	STATUS,0
000440   0ca3     rrf     0x23, 0x1        	RRF	r0x1015,F
000441   3e01     addlw   0x01             	ADDLW	0x01
000442   1c03     btfss   0x03, 0x0        	BTFSS	STATUS,0
000443   2c3b     goto    0x043b           	GOTO	_00140_DS_
                                           _00138_DS_:
000444   1283     bcf     0x03, 0x5        	BANKSEL	r0x1015
000445   1303     bcf     0x03, 0x6        
000446   0923     comf    0x23, 0x0        	COMF	r0x1015,W
000447   00a0     movwf   0x20             	MOVWF	r0x1012
000448   1683     bsf     0x03, 0x5        	BANKSEL	_TRISD
000449   1303     bcf     0x03, 0x6        
00044a   0808     movf    0x08, 0x0        	MOVF	_TRISD,W
00044b   1283     bcf     0x03, 0x5        	BANKSEL	r0x1015
00044c   1303     bcf     0x03, 0x6        
00044d   00a3     movwf   0x23             	MOVWF	r0x1015
00044e   05a0     andwf   0x20, 0x1        	ANDWF	r0x1012,F
00044f   0822     movf    0x22, 0x0        	MOVF	r0x1014,W
000450   00a3     movwf   0x23             	MOVWF	r0x1015
000451   0821     movf    0x21, 0x0        	MOVF	r0x1013,W
000452   3c00     sublw   0x00             	SUBLW	0x00
000453   1903     btfsc   0x03, 0x2        	BTFSC	STATUS,2
000454   2c5b     goto    0x045b           	GOTO	_00142_DS_
                                           _00141_DS_:
000455   1283     bcf     0x03, 0x5        	BANKSEL	r0x1015
000456   1303     bcf     0x03, 0x6        
000457   0da3     rlf     0x23, 0x1        	RLF	r0x1015,F
000458   3e01     addlw   0x01             	ADDLW	0x01
000459   1c03     btfss   0x03, 0x0        	BTFSS	STATUS,0
00045a   2c55     goto    0x0455           	GOTO	_00141_DS_
                                           _00142_DS_:
00045b   1283     bcf     0x03, 0x5        	BANKSEL	r0x1015
00045c   1303     bcf     0x03, 0x6        
00045d   0823     movf    0x23, 0x0        	MOVF	r0x1015,W
00045e   00a4     movwf   0x24             	MOVWF	r0x1016
00045f   0420     iorwf   0x20, 0x0        	IORWF	r0x1012,W
000460   1683     bsf     0x03, 0x5        	BANKSEL	_TRISD
000461   1303     bcf     0x03, 0x6        
000462   0088     movwf   0x08             	MOVWF	_TRISD
                                           ;	.line	27; "gpio.c"	break;
000463   2c9e     goto    0x049e           	GOTO	_00111_DS_
                                           ;;100	MOVF	r0x1013,W
                                           _00109_DS_:
                                           ;	.line	30; "gpio.c"	SET_REGISTER_PIN(TRISE, pin, direction);
000464   3001     movlw   0x01             	MOVLW	0x01
000465   1283     bcf     0x03, 0x5        	BANKSEL	r0x1015
000466   1303     bcf     0x03, 0x6        
000467   00a3     movwf   0x23             	MOVWF	r0x1015
                                           ;;99	MOVF	r0x1012,W
000468   0821     movf    0x21, 0x0        	MOVF	r0x1013,W
000469   00a0     movwf   0x20             	MOVWF	r0x1012
00046a   1ba0     btfsc   0x20, 0x7        	BTFSC	r0x1012,7
00046b   2c76     goto    0x0476           	GOTO	_00146_DS_
00046c   3c00     sublw   0x00             	SUBLW	0x00
00046d   1903     btfsc   0x03, 0x2        	BTFSC	STATUS,2
00046e   2c7f     goto    0x047f           	GOTO	_00144_DS_
                                           _00143_DS_:
00046f   1283     bcf     0x03, 0x5        	BANKSEL	r0x1015
000470   1303     bcf     0x03, 0x6        
000471   0da3     rlf     0x23, 0x1        	RLF	r0x1015,F
000472   3e01     addlw   0x01             	ADDLW	0x01
000473   1c03     btfss   0x03, 0x0        	BTFSS	STATUS,0
000474   2c6f     goto    0x046f           	GOTO	_00143_DS_
000475   2c7f     goto    0x047f           	GOTO	_00144_DS_
                                           _00146_DS_:
000476   1003     bcf     0x03, 0x0        	BCF	STATUS,0
000477   1283     bcf     0x03, 0x5        	BANKSEL	r0x1015
000478   1303     bcf     0x03, 0x6        
000479   1ba3     btfsc   0x23, 0x7        	BTFSC	r0x1015,7
00047a   1403     bsf     0x03, 0x0        	BSF	STATUS,0
00047b   0ca3     rrf     0x23, 0x1        	RRF	r0x1015,F
00047c   3e01     addlw   0x01             	ADDLW	0x01
00047d   1c03     btfss   0x03, 0x0        	BTFSS	STATUS,0
00047e   2c76     goto    0x0476           	GOTO	_00146_DS_
                                           _00144_DS_:
00047f   1283     bcf     0x03, 0x5        	BANKSEL	r0x1015
000480   1303     bcf     0x03, 0x6        
000481   0923     comf    0x23, 0x0        	COMF	r0x1015,W
000482   00a0     movwf   0x20             	MOVWF	r0x1012
000483   1683     bsf     0x03, 0x5        	BANKSEL	_TRISE
000484   1303     bcf     0x03, 0x6        
000485   0809     movf    0x09, 0x0        	MOVF	_TRISE,W
000486   1283     bcf     0x03, 0x5        	BANKSEL	r0x1015
000487   1303     bcf     0x03, 0x6        
000488   00a3     movwf   0x23             	MOVWF	r0x1015
000489   05a0     andwf   0x20, 0x1        	ANDWF	r0x1012,F
00048a   0822     movf    0x22, 0x0        	MOVF	r0x1014,W
00048b   00a3     movwf   0x23             	MOVWF	r0x1015
00048c   0821     movf    0x21, 0x0        	MOVF	r0x1013,W
00048d   3c00     sublw   0x00             	SUBLW	0x00
00048e   1903     btfsc   0x03, 0x2        	BTFSC	STATUS,2
00048f   2c96     goto    0x0496           	GOTO	_00148_DS_
                                           _00147_DS_:
000490   1283     bcf     0x03, 0x5        	BANKSEL	r0x1015
000491   1303     bcf     0x03, 0x6        
000492   0da3     rlf     0x23, 0x1        	RLF	r0x1015,F
000493   3e01     addlw   0x01             	ADDLW	0x01
000494   1c03     btfss   0x03, 0x0        	BTFSS	STATUS,0
000495   2c90     goto    0x0490           	GOTO	_00147_DS_
                                           _00148_DS_:
000496   1283     bcf     0x03, 0x5        	BANKSEL	r0x1015
000497   1303     bcf     0x03, 0x6        
000498   0823     movf    0x23, 0x0        	MOVF	r0x1015,W
000499   00a1     movwf   0x21             	MOVWF	r0x1013
00049a   0420     iorwf   0x20, 0x0        	IORWF	r0x1012,W
00049b   1683     bsf     0x03, 0x5        	BANKSEL	_TRISE
00049c   1303     bcf     0x03, 0x6        
00049d   0089     movwf   0x09             	MOVWF	_TRISE
                                           _00111_DS_:
                                           ;	.line	35; "gpio.c"	}
00049e   0008     return                   	RETURN	
                                           ; exit point of _GPIO_InitPortPin


                                           ;	code size estimation:
                                           ;	  740+  147 =   887 instructions ( 2068 byte)

                                           	end
                                           ;--------------------------------------------------------
                                           ; File Created by SDCC : free open source ANSI-C Compiler
                                           ; Version 4.0.0 #11528 (MINGW64)
                                           ;--------------------------------------------------------
                                           ; PIC port for the 14-bit core
                                           ;--------------------------------------------------------
                                           ;	.file	"hours.c"
                                           	list	p=16f877a
                                           	radix dec
                                           	include "p16f877a.inc"
                                                   LIST

                                           ;==========================================================================
                                           ; Build date : Oct 21 2015
                                           ;  MPASM PIC16F877A processor include
                                           ; 
                                           ;  (c) Copyright 1999-2015 Microchip Technology, All rights reserved
                                           ;==========================================================================

                                                   NOLIST
                                           ;--------------------------------------------------------
                                           ; external declarations
                                           ;--------------------------------------------------------
                                           	extern	__modsint
                                           	extern	__divsint
                                           	extern	_get_minutes
                                           	extern	_SSD_SetSymbol
                                           	extern	_PB_GetState
                                           	extern	_get_mode

                                           	extern PSAVE
                                           	extern SSAVE
                                           	extern WSAVE
                                           	extern STK12
                                           	extern STK11
                                           	extern STK10
                                           	extern STK09
                                           	extern STK08
                                           	extern STK07
                                           	extern STK06
                                           	extern STK05
                                           	extern STK04
                                           	extern STK03
                                           	extern STK02
                                           	extern STK01
                                           	extern STK00
                                           ;--------------------------------------------------------
                                           ; global declarations
                                           ;--------------------------------------------------------
                                           	global	_hour_init
                                           	global	_hour_update
                                           	global	_get_hour

                                           ;--------------------------------------------------------
                                           ; global definitions
                                           ;--------------------------------------------------------
                                           ;--------------------------------------------------------
                                           ; absolute symbol definitions
                                           ;--------------------------------------------------------
                                           ;--------------------------------------------------------
                                           ; compiler-defined variables
                                           ;--------------------------------------------------------
                                           UDL_hours_0	udata
                                           r0x1004	res	1
                                           r0x1005	res	1
                                           r0x1006	res	1
                                           ;--------------------------------------------------------
                                           ; initialized data
                                           ;--------------------------------------------------------

                                           IDD_hours_0	idata
                                           _hour
                                           	db	0x00	; 0


                                           IDD_hours_1	idata
                                           _flag
                                           	db	0x01	; 1


                                           IDD_hours_2	idata
                                           _one_second_time
                                           	db	0x00	; 0


                                           IDD_hours_3	idata
                                           _SSD_data
                                           	db	0x0a	; 10

                                           ;--------------------------------------------------------
                                           ; initialized absolute data
                                           ;--------------------------------------------------------
                                           ;--------------------------------------------------------
                                           ; overlayable items in internal ram 
                                           ;--------------------------------------------------------
                                           ;	udata_ovr
                                           ;--------------------------------------------------------
                                           ; code
                                           ;--------------------------------------------------------
                                           code_hours	code
                                           ;***
                                           ;  pBlock Stats: dbName = C
                                           ;***
                                           ;has an exit
                                           ;; Starting pCode block
                                           S_hours__get_hour	code
                                           _get_hour:
                                           ; 2 exit points
                                           ;	.line	104; "hours.c"	}
000fe3   0008     return                   	RETURN	
                                           ; exit point of _get_hour

                                           ;***
                                           ;  pBlock Stats: dbName = C
                                           ;***
                                           ;has an exit
                                           ;functions called:
                                           ;   _get_mode
                                           ;   _get_minutes
                                           ;   _get_minutes
                                           ;   __divsint
                                           ;   _SSD_SetSymbol
                                           ;   __modsint
                                           ;   _SSD_SetSymbol
                                           ;   _get_mode
                                           ;   _PB_GetState
                                           ;   _PB_GetState
                                           ;   __divsint
                                           ;   _SSD_SetSymbol
                                           ;   __modsint
                                           ;   _SSD_SetSymbol
                                           ;   _SSD_SetSymbol
                                           ;   _SSD_SetSymbol
                                           ;   _TOGGLE_passed_value_to_SSD
                                           ;   _get_mode
                                           ;   _get_minutes
                                           ;   _get_minutes
                                           ;   __divsint
                                           ;   _SSD_SetSymbol
                                           ;   __modsint
                                           ;   _SSD_SetSymbol
                                           ;   _get_mode
                                           ;   _PB_GetState
                                           ;   _PB_GetState
                                           ;   __divsint
                                           ;   _SSD_SetSymbol
                                           ;   __modsint
                                           ;   _SSD_SetSymbol
                                           ;   _SSD_SetSymbol
                                           ;   _SSD_SetSymbol
                                           ;   _TOGGLE_passed_value_to_SSD
                                           ;6 compiler assigned registers:
                                           ;   r0x1004
                                           ;   r0x1005
                                           ;   STK02
                                           ;   STK01
                                           ;   STK00
                                           ;   r0x1006
                                           ;; Starting pCode block
                                           S_hours__hour_update	code
                                           _hour_update:
                                           ; 2 exit points
                                           ;	.line	42; "hours.c"	if(get_mode()== normal)
00049f   158a     bsf     0x0a, 0x3        	PAGESEL	_get_mode
0004a0   120a     bcf     0x0a, 0x4        
0004a1   27c3     call    0x07c3           	CALL	_get_mode
0004a2   118a     bcf     0x0a, 0x3        	PAGESEL	$
0004a3   120a     bcf     0x0a, 0x4        
0004a4   1683     bsf     0x03, 0x5        	BANKSEL	r0x1004
0004a5   1303     bcf     0x03, 0x6        
0004a6   00e0     movwf   0x60             	MOVWF	r0x1004
0004a7   0860     movf    0x60, 0x0        	MOVF	r0x1004,W
0004a8   1d03     btfss   0x03, 0x2        	BTFSS	STATUS,2
0004a9   2d1e     goto    0x051e           	GOTO	_00144_DS_
                                           ;	.line	44; "hours.c"	one_second_time=0;
0004aa   1683     bsf     0x03, 0x5        	BANKSEL	_one_second_time
0004ab   1303     bcf     0x03, 0x6        
0004ac   01ec     clrf    0x6c             	CLRF	_one_second_time
                                           ;	.line	46; "hours.c"	if( get_minutes() ==  60 && flag ){ if(hour < 24 ) {hour++;  }
0004ad   158a     bsf     0x0a, 0x3        	PAGESEL	_get_minutes
0004ae   120a     bcf     0x0a, 0x4        
0004af   27cf     call    0x07cf           	CALL	_get_minutes
0004b0   118a     bcf     0x0a, 0x3        	PAGESEL	$
0004b1   120a     bcf     0x0a, 0x4        
0004b2   1683     bsf     0x03, 0x5        	BANKSEL	r0x1004
0004b3   1303     bcf     0x03, 0x6        
0004b4   00e0     movwf   0x60             	MOVWF	r0x1004
0004b5   3a3c     xorlw   0x3c             	XORLW	0x3c
0004b6   1d03     btfss   0x03, 0x2        	BTFSS	STATUS,2
0004b7   2ccc     goto    0x04cc           	GOTO	_00123_DS_
0004b8   1683     bsf     0x03, 0x5        	BANKSEL	_flag
0004b9   1303     bcf     0x03, 0x6        
0004ba   086b     movf    0x6b, 0x0        	MOVF	_flag,W
0004bb   1903     btfsc   0x03, 0x2        	BTFSC	STATUS,2
0004bc   2ccc     goto    0x04cc           	GOTO	_00123_DS_
                                           ;;unsigned compare: left < lit(0x18=24), size=1
0004bd   3018     movlw   0x18             	MOVLW	0x18
0004be   1683     bsf     0x03, 0x5        	BANKSEL	_hour
0004bf   1303     bcf     0x03, 0x6        
0004c0   026a     subwf   0x6a, 0x0        	SUBWF	_hour,W
0004c1   1803     btfsc   0x03, 0x0        	BTFSC	STATUS,0
0004c2   2cc5     goto    0x04c5           	GOTO	_00118_DS_
                                           ;;genSkipc:3307: created from rifx:00000000047A57B0
0004c3   0aea     incf    0x6a, 0x1        	INCF	_hour,F
0004c4   2cc8     goto    0x04c8           	GOTO	_00119_DS_
                                           _00118_DS_:
                                           ;	.line	47; "hours.c"	else {hour =0;}
0004c5   1683     bsf     0x03, 0x5        	BANKSEL	_hour
0004c6   1303     bcf     0x03, 0x6        
0004c7   01ea     clrf    0x6a             	CLRF	_hour
                                           _00119_DS_:
                                           ;	.line	48; "hours.c"	flag =0;
0004c8   1683     bsf     0x03, 0x5        	BANKSEL	_flag
0004c9   1303     bcf     0x03, 0x6        
0004ca   01eb     clrf    0x6b             	CLRF	_flag
0004cb   2cdb     goto    0x04db           	GOTO	_00124_DS_
                                           _00123_DS_:
                                           ;	.line	51; "hours.c"	else if(get_minutes() !=60 ){
0004cc   158a     bsf     0x0a, 0x3        	PAGESEL	_get_minutes
0004cd   120a     bcf     0x0a, 0x4        
0004ce   27cf     call    0x07cf           	CALL	_get_minutes
0004cf   118a     bcf     0x0a, 0x3        	PAGESEL	$
0004d0   120a     bcf     0x0a, 0x4        
0004d1   1683     bsf     0x03, 0x5        	BANKSEL	r0x1004
0004d2   1303     bcf     0x03, 0x6        
0004d3   00e0     movwf   0x60             	MOVWF	r0x1004
                                           ;	.line	52; "hours.c"	flag =1;
0004d4   3a3c     xorlw   0x3c             	XORLW	0x3c
0004d5   1903     btfsc   0x03, 0x2        	BTFSC	STATUS,2
0004d6   2cdb     goto    0x04db           	GOTO	_00124_DS_
0004d7   3001     movlw   0x01             	MOVLW	0x01
0004d8   1683     bsf     0x03, 0x5        	BANKSEL	_flag
0004d9   1303     bcf     0x03, 0x6        
0004da   00eb     movwf   0x6b             	MOVWF	_flag
                                           ;;106	MOVF	_hour,W
                                           _00124_DS_:
                                           ;	.line	56; "hours.c"	SSD_SetSymbol(SSD_L , hour/10 );
0004db   1683     bsf     0x03, 0x5        	BANKSEL	r0x1005
0004dc   1303     bcf     0x03, 0x6        
0004dd   01e1     clrf    0x61             	CLRF	r0x1005
0004de   300a     movlw   0x0a             	MOVLW	0x0a
0004df   00fd     movwf   0x7d             	MOVWF	STK02
0004e0   3000     movlw   0x00             	MOVLW	0x00
0004e1   00fe     movwf   0x7e             	MOVWF	STK01
                                           ;;105	MOVF	r0x1004,W
0004e2   1683     bsf     0x03, 0x5        	BANKSEL	_hour
0004e3   1303     bcf     0x03, 0x6        
0004e4   086a     movf    0x6a, 0x0        	MOVF	_hour,W
0004e5   1683     bsf     0x03, 0x5        	BANKSEL	r0x1004
0004e6   1303     bcf     0x03, 0x6        
0004e7   00e0     movwf   0x60             	MOVWF	r0x1004
0004e8   00ff     movwf   0x7f             	MOVWF	STK00
0004e9   3000     movlw   0x00             	MOVLW	0x00
0004ea   158a     bsf     0x0a, 0x3        	PAGESEL	__divsint
0004eb   120a     bcf     0x0a, 0x4        
0004ec   23cf     call    0x03cf           	CALL	__divsint
0004ed   118a     bcf     0x0a, 0x3        	PAGESEL	$
0004ee   120a     bcf     0x0a, 0x4        
0004ef   1683     bsf     0x03, 0x5        	BANKSEL	r0x1005
0004f0   1303     bcf     0x03, 0x6        
0004f1   00e1     movwf   0x61             	MOVWF	r0x1005
0004f2   087f     movf    0x7f, 0x0        	MOVF	STK00,W
0004f3   00e0     movwf   0x60             	MOVWF	r0x1004
0004f4   00e2     movwf   0x62             	MOVWF	r0x1006
0004f5   00ff     movwf   0x7f             	MOVWF	STK00
0004f6   3000     movlw   0x00             	MOVLW	0x00
0004f7   158a     bsf     0x0a, 0x3        	PAGESEL	_SSD_SetSymbol
0004f8   120a     bcf     0x0a, 0x4        
0004f9   2747     call    0x0747           	CALL	_SSD_SetSymbol
0004fa   118a     bcf     0x0a, 0x3        	PAGESEL	$
0004fb   120a     bcf     0x0a, 0x4        
                                           ;;104	MOVF	_hour,W
                                           ;	.line	57; "hours.c"	SSD_SetSymbol(SSD_M ,  hour%10);
0004fc   1683     bsf     0x03, 0x5        	BANKSEL	r0x1005
0004fd   1303     bcf     0x03, 0x6        
0004fe   01e1     clrf    0x61             	CLRF	r0x1005
0004ff   300a     movlw   0x0a             	MOVLW	0x0a
000500   00fd     movwf   0x7d             	MOVWF	STK02
000501   3000     movlw   0x00             	MOVLW	0x00
000502   00fe     movwf   0x7e             	MOVWF	STK01
                                           ;;103	MOVF	r0x1004,W
000503   1683     bsf     0x03, 0x5        	BANKSEL	_hour
000504   1303     bcf     0x03, 0x6        
000505   086a     movf    0x6a, 0x0        	MOVF	_hour,W
000506   1683     bsf     0x03, 0x5        	BANKSEL	r0x1004
000507   1303     bcf     0x03, 0x6        
000508   00e0     movwf   0x60             	MOVWF	r0x1004
000509   00ff     movwf   0x7f             	MOVWF	STK00
00050a   3000     movlw   0x00             	MOVLW	0x00
00050b   158a     bsf     0x0a, 0x3        	PAGESEL	__modsint
00050c   120a     bcf     0x0a, 0x4        
00050d   2435     call    0x0435           	CALL	__modsint
00050e   118a     bcf     0x0a, 0x3        	PAGESEL	$
00050f   120a     bcf     0x0a, 0x4        
000510   1683     bsf     0x03, 0x5        	BANKSEL	r0x1005
000511   1303     bcf     0x03, 0x6        
000512   00e1     movwf   0x61             	MOVWF	r0x1005
000513   087f     movf    0x7f, 0x0        	MOVF	STK00,W
000514   00e0     movwf   0x60             	MOVWF	r0x1004
000515   00e2     movwf   0x62             	MOVWF	r0x1006
000516   00ff     movwf   0x7f             	MOVWF	STK00
000517   3001     movlw   0x01             	MOVLW	0x01
000518   158a     bsf     0x0a, 0x3        	PAGESEL	_SSD_SetSymbol
000519   120a     bcf     0x0a, 0x4        
00051a   2747     call    0x0747           	CALL	_SSD_SetSymbol
00051b   118a     bcf     0x0a, 0x3        	PAGESEL	$
00051c   120a     bcf     0x0a, 0x4        
00051d   2dc5     goto    0x05c5           	GOTO	_00146_DS_
                                           _00144_DS_:
                                           ;	.line	61; "hours.c"	else if(get_mode()== setting_hour)
00051e   158a     bsf     0x0a, 0x3        	PAGESEL	_get_mode
00051f   120a     bcf     0x0a, 0x4        
000520   27c3     call    0x07c3           	CALL	_get_mode
000521   118a     bcf     0x0a, 0x3        	PAGESEL	$
000522   120a     bcf     0x0a, 0x4        
000523   1683     bsf     0x03, 0x5        	BANKSEL	r0x1004
000524   1303     bcf     0x03, 0x6        
000525   00e0     movwf   0x60             	MOVWF	r0x1004
000526   3a01     xorlw   0x01             	XORLW	0x01
000527   1d03     btfss   0x03, 0x2        	BTFSS	STATUS,2
000528   2dc5     goto    0x05c5           	GOTO	_00146_DS_
                                           ;	.line	63; "hours.c"	one_second_time++;
000529   1683     bsf     0x03, 0x5        	BANKSEL	_one_second_time
00052a   1303     bcf     0x03, 0x6        
00052b   0aec     incf    0x6c, 0x1        	INCF	_one_second_time,F
                                           ;	.line	65; "hours.c"	if(PB_GetState(PB_MINUS) ==PB_PRE_PRESSED )
00052c   3001     movlw   0x01             	MOVLW	0x01
00052d   158a     bsf     0x0a, 0x3        	PAGESEL	_PB_GetState
00052e   120a     bcf     0x0a, 0x4        
00052f   2705     call    0x0705           	CALL	_PB_GetState
000530   118a     bcf     0x0a, 0x3        	PAGESEL	$
000531   120a     bcf     0x0a, 0x4        
000532   1683     bsf     0x03, 0x5        	BANKSEL	r0x1004
000533   1303     bcf     0x03, 0x6        
000534   00e0     movwf   0x60             	MOVWF	r0x1004
000535   3a01     xorlw   0x01             	XORLW	0x01
000536   1d03     btfss   0x03, 0x2        	BTFSS	STATUS,2
000537   2d43     goto    0x0543           	GOTO	_00130_DS_
                                           ;	.line	67; "hours.c"	if(hour == 0){  hour =23 ; }
000538   1683     bsf     0x03, 0x5        	BANKSEL	_hour
000539   1303     bcf     0x03, 0x6        
00053a   086a     movf    0x6a, 0x0        	MOVF	_hour,W
00053b   1d03     btfss   0x03, 0x2        	BTFSS	STATUS,2
00053c   2d40     goto    0x0540           	GOTO	_00127_DS_
00053d   3017     movlw   0x17             	MOVLW	0x17
00053e   00ea     movwf   0x6a             	MOVWF	_hour
00053f   2d43     goto    0x0543           	GOTO	_00130_DS_
                                           _00127_DS_:
                                           ;	.line	68; "hours.c"	else          {  hour--;    }
000540   1683     bsf     0x03, 0x5        	BANKSEL	_hour
000541   1303     bcf     0x03, 0x6        
000542   03ea     decf    0x6a, 0x1        	DECF	_hour,F
                                           _00130_DS_:
                                           ;	.line	71; "hours.c"	if(PB_GetState(PB_PLUS) ==PB_PRE_PRESSED )
000543   3000     movlw   0x00             	MOVLW	0x00
000544   158a     bsf     0x0a, 0x3        	PAGESEL	_PB_GetState
000545   120a     bcf     0x0a, 0x4        
000546   2705     call    0x0705           	CALL	_PB_GetState
000547   118a     bcf     0x0a, 0x3        	PAGESEL	$
000548   120a     bcf     0x0a, 0x4        
000549   1683     bsf     0x03, 0x5        	BANKSEL	r0x1004
00054a   1303     bcf     0x03, 0x6        
00054b   00e0     movwf   0x60             	MOVWF	r0x1004
00054c   3a01     xorlw   0x01             	XORLW	0x01
00054d   1d03     btfss   0x03, 0x2        	BTFSS	STATUS,2
00054e   2d5a     goto    0x055a           	GOTO	_00135_DS_
                                           ;	.line	73; "hours.c"	if(  hour == 23){     hour =0;}
00054f   1683     bsf     0x03, 0x5        	BANKSEL	_hour
000550   1303     bcf     0x03, 0x6        
000551   086a     movf    0x6a, 0x0        	MOVF	_hour,W
000552   3a17     xorlw   0x17             	XORLW	0x17
000553   1d03     btfss   0x03, 0x2        	BTFSS	STATUS,2
000554   2d57     goto    0x0557           	GOTO	_00132_DS_
000555   01ea     clrf    0x6a             	CLRF	_hour
000556   2d5a     goto    0x055a           	GOTO	_00135_DS_
                                           _00132_DS_:
                                           ;	.line	74; "hours.c"	else{                 hour++; }
000557   1683     bsf     0x03, 0x5        	BANKSEL	_hour
000558   1303     bcf     0x03, 0x6        
000559   0aea     incf    0x6a, 0x1        	INCF	_hour,F
                                           _00135_DS_:
                                           ;	.line	78; "hours.c"	if(SSD_data !=SSD_NULL)
00055a   1683     bsf     0x03, 0x5        	BANKSEL	_SSD_data
00055b   1303     bcf     0x03, 0x6        
00055c   086d     movf    0x6d, 0x0        	MOVF	_SSD_data,W
                                           ;	.line	81; "hours.c"	SSD_SetSymbol(SSD_L ,   SSD_data/10 );
00055d   3a0a     xorlw   0x0a             	XORLW	0x0a
00055e   1903     btfsc   0x03, 0x2        	BTFSC	STATUS,2
00055f   2da3     goto    0x05a3           	GOTO	_00137_DS_
                                           ;;102	MOVF	_SSD_data,W
000560   1683     bsf     0x03, 0x5        	BANKSEL	r0x1005
000561   1303     bcf     0x03, 0x6        
000562   01e1     clrf    0x61             	CLRF	r0x1005
000563   300a     movlw   0x0a             	MOVLW	0x0a
000564   00fd     movwf   0x7d             	MOVWF	STK02
000565   3000     movlw   0x00             	MOVLW	0x00
000566   00fe     movwf   0x7e             	MOVWF	STK01
                                           ;;101	MOVF	r0x1004,W
000567   1683     bsf     0x03, 0x5        	BANKSEL	_SSD_data
000568   1303     bcf     0x03, 0x6        
000569   086d     movf    0x6d, 0x0        	MOVF	_SSD_data,W
00056a   1683     bsf     0x03, 0x5        	BANKSEL	r0x1004
00056b   1303     bcf     0x03, 0x6        
00056c   00e0     movwf   0x60             	MOVWF	r0x1004
00056d   00ff     movwf   0x7f             	MOVWF	STK00
00056e   3000     movlw   0x00             	MOVLW	0x00
00056f   158a     bsf     0x0a, 0x3        	PAGESEL	__divsint
000570   120a     bcf     0x0a, 0x4        
000571   23cf     call    0x03cf           	CALL	__divsint
000572   118a     bcf     0x0a, 0x3        	PAGESEL	$
000573   120a     bcf     0x0a, 0x4        
000574   1683     bsf     0x03, 0x5        	BANKSEL	r0x1005
000575   1303     bcf     0x03, 0x6        
000576   00e1     movwf   0x61             	MOVWF	r0x1005
000577   087f     movf    0x7f, 0x0        	MOVF	STK00,W
000578   00e0     movwf   0x60             	MOVWF	r0x1004
000579   00e2     movwf   0x62             	MOVWF	r0x1006
00057a   00ff     movwf   0x7f             	MOVWF	STK00
00057b   3000     movlw   0x00             	MOVLW	0x00
00057c   158a     bsf     0x0a, 0x3        	PAGESEL	_SSD_SetSymbol
00057d   120a     bcf     0x0a, 0x4        
00057e   2747     call    0x0747           	CALL	_SSD_SetSymbol
00057f   118a     bcf     0x0a, 0x3        	PAGESEL	$
000580   120a     bcf     0x0a, 0x4        
                                           ;;100	MOVF	_SSD_data,W
                                           ;	.line	82; "hours.c"	SSD_SetSymbol(SSD_M,   SSD_data%10);
000581   1683     bsf     0x03, 0x5        	BANKSEL	r0x1005
000582   1303     bcf     0x03, 0x6        
000583   01e1     clrf    0x61             	CLRF	r0x1005
000584   300a     movlw   0x0a             	MOVLW	0x0a
000585   00fd     movwf   0x7d             	MOVWF	STK02
000586   3000     movlw   0x00             	MOVLW	0x00
000587   00fe     movwf   0x7e             	MOVWF	STK01
                                           ;;99	MOVF	r0x1004,W
000588   1683     bsf     0x03, 0x5        	BANKSEL	_SSD_data
000589   1303     bcf     0x03, 0x6        
00058a   086d     movf    0x6d, 0x0        	MOVF	_SSD_data,W
00058b   1683     bsf     0x03, 0x5        	BANKSEL	r0x1004
00058c   1303     bcf     0x03, 0x6        
00058d   00e0     movwf   0x60             	MOVWF	r0x1004
00058e   00ff     movwf   0x7f             	MOVWF	STK00
00058f   3000     movlw   0x00             	MOVLW	0x00
000590   158a     bsf     0x0a, 0x3        	PAGESEL	__modsint
000591   120a     bcf     0x0a, 0x4        
000592   2435     call    0x0435           	CALL	__modsint
000593   118a     bcf     0x0a, 0x3        	PAGESEL	$
000594   120a     bcf     0x0a, 0x4        
000595   1683     bsf     0x03, 0x5        	BANKSEL	r0x1005
000596   1303     bcf     0x03, 0x6        
000597   00e1     movwf   0x61             	MOVWF	r0x1005
000598   087f     movf    0x7f, 0x0        	MOVF	STK00,W
000599   00e0     movwf   0x60             	MOVWF	r0x1004
00059a   00e2     movwf   0x62             	MOVWF	r0x1006
00059b   00ff     movwf   0x7f             	MOVWF	STK00
00059c   3001     movlw   0x01             	MOVLW	0x01
00059d   158a     bsf     0x0a, 0x3        	PAGESEL	_SSD_SetSymbol
00059e   120a     bcf     0x0a, 0x4        
00059f   2747     call    0x0747           	CALL	_SSD_SetSymbol
0005a0   118a     bcf     0x0a, 0x3        	PAGESEL	$
0005a1   120a     bcf     0x0a, 0x4        
0005a2   2db7     goto    0x05b7           	GOTO	_00138_DS_
                                           _00137_DS_:
                                           ;	.line	88; "hours.c"	SSD_SetSymbol(SSD_L ,   SSD_data );
0005a3   1683     bsf     0x03, 0x5        	BANKSEL	_SSD_data
0005a4   1303     bcf     0x03, 0x6        
0005a5   086d     movf    0x6d, 0x0        	MOVF	_SSD_data,W
0005a6   00ff     movwf   0x7f             	MOVWF	STK00
0005a7   3000     movlw   0x00             	MOVLW	0x00
0005a8   158a     bsf     0x0a, 0x3        	PAGESEL	_SSD_SetSymbol
0005a9   120a     bcf     0x0a, 0x4        
0005aa   2747     call    0x0747           	CALL	_SSD_SetSymbol
0005ab   118a     bcf     0x0a, 0x3        	PAGESEL	$
0005ac   120a     bcf     0x0a, 0x4        
                                           ;	.line	89; "hours.c"	SSD_SetSymbol(SSD_M,   SSD_data);
0005ad   1683     bsf     0x03, 0x5        	BANKSEL	_SSD_data
0005ae   1303     bcf     0x03, 0x6        
0005af   086d     movf    0x6d, 0x0        	MOVF	_SSD_data,W
0005b0   00ff     movwf   0x7f             	MOVWF	STK00
0005b1   3001     movlw   0x01             	MOVLW	0x01
0005b2   158a     bsf     0x0a, 0x3        	PAGESEL	_SSD_SetSymbol
0005b3   120a     bcf     0x0a, 0x4        
0005b4   2747     call    0x0747           	CALL	_SSD_SetSymbol
0005b5   118a     bcf     0x0a, 0x3        	PAGESEL	$
0005b6   120a     bcf     0x0a, 0x4        
                                           _00138_DS_:
                                           ;	.line	92; "hours.c"	if( one_second_time == NUM_OF_TICKS_PER_ONE_SECOND)
0005b7   1683     bsf     0x03, 0x5        	BANKSEL	_one_second_time
0005b8   1303     bcf     0x03, 0x6        
0005b9   086c     movf    0x6c, 0x0        	MOVF	_one_second_time,W
0005ba   3a0a     xorlw   0x0a             	XORLW	0x0a
0005bb   1d03     btfss   0x03, 0x2        	BTFSS	STATUS,2
0005bc   2dc5     goto    0x05c5           	GOTO	_00146_DS_
                                           ;	.line	94; "hours.c"	TOGGLE_passed_value_to_SSD();
0005bd   158a     bsf     0x0a, 0x3        	PAGESEL	_TOGGLE_passed_value_to_SSD
0005be   120a     bcf     0x0a, 0x4        
0005bf   2777     call    0x0777           	CALL	_TOGGLE_passed_value_to_SSD
0005c0   118a     bcf     0x0a, 0x3        	PAGESEL	$
0005c1   120a     bcf     0x0a, 0x4        
                                           ;	.line	96; "hours.c"	one_second_time =0;
0005c2   1683     bsf     0x03, 0x5        	BANKSEL	_one_second_time
0005c3   1303     bcf     0x03, 0x6        
0005c4   01ec     clrf    0x6c             	CLRF	_one_second_time
                                           _00146_DS_:
                                           ;	.line	99; "hours.c"	}
0005c5   0008     return                   	RETURN	
                                           ; exit point of _hour_update

                                           ;***
                                           ;  pBlock Stats: dbName = C
                                           ;***
                                           ;has an exit
                                           ;; Starting pCode block
                                           S_hours__hour_init	code
                                           _hour_init:
                                           ; 2 exit points
                                           ;	.line	33; "hours.c"	void hour_init(unsigned char init_hour)
000fcb   1683     bsf     0x03, 0x5        	BANKSEL	_hour
000fcc   1303     bcf     0x03, 0x6        
000fcd   00ea     movwf   0x6a             	MOVWF	_hour
                                           ;	.line	37; "hours.c"	}
000fce   0008     return                   	RETURN	
                                           ; exit point of _hour_init

                                           ;***
                                           ;  pBlock Stats: dbName = C
                                           ;***
                                           ;has an exit
                                           ;; Starting pCode block
                                           S_hours__TOGGLE_passed_value_to_SSD	code
                                           _TOGGLE_passed_value_to_SSD:
                                           ; 2 exit points
                                           ;	.line	21; "hours.c"	if(SSD_data ==  SSD_NULL)
000f77   1683     bsf     0x03, 0x5        	BANKSEL	_SSD_data
000f78   1303     bcf     0x03, 0x6        
000f79   086d     movf    0x6d, 0x0        	MOVF	_SSD_data,W
000f7a   3a0a     xorlw   0x0a             	XORLW	0x0a
000f7b   1d03     btfss   0x03, 0x2        	BTFSS	STATUS,2
000f7c   2f84     goto    0x0784           	GOTO	_00106_DS_
                                           ;	.line	23; "hours.c"	SSD_data =hour ;
000f7d   1683     bsf     0x03, 0x5        	BANKSEL	_hour
000f7e   1303     bcf     0x03, 0x6        
000f7f   086a     movf    0x6a, 0x0        	MOVF	_hour,W
000f80   1683     bsf     0x03, 0x5        	BANKSEL	_SSD_data
000f81   1303     bcf     0x03, 0x6        
000f82   00ed     movwf   0x6d             	MOVWF	_SSD_data
000f83   2f88     goto    0x0788           	GOTO	_00108_DS_
                                           _00106_DS_:
                                           ;	.line	27; "hours.c"	SSD_data = SSD_NULL;
000f84   300a     movlw   0x0a             	MOVLW	0x0a
000f85   1683     bsf     0x03, 0x5        	BANKSEL	_SSD_data
000f86   1303     bcf     0x03, 0x6        
000f87   00ed     movwf   0x6d             	MOVWF	_SSD_data
                                           _00108_DS_:
                                           ;	.line	30; "hours.c"	}
000f88   0008     return                   	RETURN	
                                           ; exit point of _TOGGLE_passed_value_to_SSD


                                           ;	code size estimation:
                                           ;	  164+   77 =   241 instructions (  636 byte)

                                           	end
                                           ;--------------------------------------------------------
                                           ; File Created by SDCC : free open source ANSI-C Compiler
                                           ; Version 4.0.0 #11528 (MINGW64)
                                           ;--------------------------------------------------------
                                           ; PIC port for the 14-bit core
                                           ;--------------------------------------------------------
                                           ;	.file	"main.c"
                                           	list	p=16f877a
                                           	radix dec
                                           	include "p16f877a.inc"
                                                   LIST

                                           ;==========================================================================
                                           ; Build date : Oct 21 2015
                                           ;  MPASM PIC16F877A processor include
                                           ; 
                                           ;  (c) Copyright 1999-2015 Microchip Technology, All rights reserved
                                           ;==========================================================================

                                                   NOLIST
                                           ;--------------------------------------------------------
                                           ; config word(s)
                                           ;--------------------------------------------------------
002007   3f32     addlw   0x32             	__config 0x3f32
                                           ;--------------------------------------------------------
                                           ; external declarations
                                           ;--------------------------------------------------------
                                           	extern	_DIG_CLK_init
                                           	extern	_hour_init
                                           	extern	_minutes_init
                                           	extern	_PB_Init
                                           	extern	_SSD_Init
                                           	extern	_TMR0_Start
                                           	extern	_TMR0_Init
                                           	extern	__sdcc_gsinit_startup
                                           ;--------------------------------------------------------
                                           ; global declarations
                                           ;--------------------------------------------------------
                                           	global	_main

                                           	global PSAVE
                                           	global SSAVE
                                           	global WSAVE
                                           	global STK12
                                           	global STK11
                                           	global STK10
                                           	global STK09
                                           	global STK08
                                           	global STK07
                                           	global STK06
                                           	global STK05
                                           	global STK04
                                           	global STK03
                                           	global STK02
                                           	global STK01
                                           	global STK00

                                           sharebank udata_ovr 0x0070
                                           PSAVE	res 1
                                           SSAVE	res 1
                                           WSAVE	res 1
                                           STK12	res 1
                                           STK11	res 1
                                           STK10	res 1
                                           STK09	res 1
                                           STK08	res 1
                                           STK07	res 1
                                           STK06	res 1
                                           STK05	res 1
                                           STK04	res 1
                                           STK03	res 1
                                           STK02	res 1
                                           STK01	res 1
                                           STK00	res 1

                                           ;--------------------------------------------------------
                                           ; global definitions
                                           ;--------------------------------------------------------
                                           ;--------------------------------------------------------
                                           ; absolute symbol definitions
                                           ;--------------------------------------------------------
                                           ;--------------------------------------------------------
                                           ; compiler-defined variables
                                           ;--------------------------------------------------------
                                           ;--------------------------------------------------------
                                           ; initialized data
                                           ;--------------------------------------------------------
                                           ;--------------------------------------------------------
                                           ; initialized absolute data
                                           ;--------------------------------------------------------
                                           ;--------------------------------------------------------
                                           ; overlayable items in internal ram 
                                           ;--------------------------------------------------------
                                           ;	udata_ovr
                                           ;--------------------------------------------------------
                                           ; reset vector 
                                           ;--------------------------------------------------------
                                           STARTUP	code 0x0000
000000   0000     nop                      	nop
000001   158a     bsf     0x0a, 0x3        	pagesel __sdcc_gsinit_startup
000002   120a     bcf     0x0a, 0x4        
000003   29dc     goto    0x01dc           	goto	__sdcc_gsinit_startup
                                           ;--------------------------------------------------------
                                           ; code
                                           ;--------------------------------------------------------
                                           code_main	code
                                           ;***
                                           ;  pBlock Stats: dbName = M
                                           ;***
                                           ;has an exit
                                           ;functions called:
                                           ;   _PB_Init
                                           ;   _PB_Init
                                           ;   _PB_Init
                                           ;   _SSD_Init
                                           ;   _SSD_Init
                                           ;   _SSD_Init
                                           ;   _SSD_Init
                                           ;   _DIG_CLK_init
                                           ;   _hour_init
                                           ;   _minutes_init
                                           ;   _TMR0_Init
                                           ;   _TMR0_Start
                                           ;   _PB_Init
                                           ;   _PB_Init
                                           ;   _PB_Init
                                           ;   _SSD_Init
                                           ;   _SSD_Init
                                           ;   _SSD_Init
                                           ;   _SSD_Init
                                           ;   _DIG_CLK_init
                                           ;   _hour_init
                                           ;   _minutes_init
                                           ;   _TMR0_Init
                                           ;   _TMR0_Start
                                           ;2 compiler assigned registers:
                                           ;   STK00
                                           ;   STK01
                                           ;; Starting pCode block
                                           S_main__main	code
                                           _main:
                                           ; 2 exit points
                                           ;	.line	17; "main.c"	PB_Init(PB_MINUS ,   PB_RELEASED);
000c96   3000     movlw   0x00             	MOVLW	0x00
000c97   00ff     movwf   0x7f             	MOVWF	STK00
000c98   3001     movlw   0x01             	MOVLW	0x01
000c99   158a     bsf     0x0a, 0x3        	PAGESEL	_PB_Init
000c9a   120a     bcf     0x0a, 0x4        
000c9b   210c     call    0x010c           	CALL	_PB_Init
000c9c   158a     bsf     0x0a, 0x3        	PAGESEL	$
000c9d   120a     bcf     0x0a, 0x4        
                                           ;	.line	18; "main.c"	PB_Init(PB_PLUS  ,   PB_RELEASED);
000c9e   3000     movlw   0x00             	MOVLW	0x00
000c9f   00ff     movwf   0x7f             	MOVWF	STK00
000ca0   3000     movlw   0x00             	MOVLW	0x00
000ca1   158a     bsf     0x0a, 0x3        	PAGESEL	_PB_Init
000ca2   120a     bcf     0x0a, 0x4        
000ca3   210c     call    0x010c           	CALL	_PB_Init
000ca4   158a     bsf     0x0a, 0x3        	PAGESEL	$
000ca5   120a     bcf     0x0a, 0x4        
                                           ;	.line	19; "main.c"	PB_Init(PB_SET   ,   PB_RELEASED);
000ca6   3000     movlw   0x00             	MOVLW	0x00
000ca7   00ff     movwf   0x7f             	MOVWF	STK00
000ca8   3002     movlw   0x02             	MOVLW	0x02
000ca9   158a     bsf     0x0a, 0x3        	PAGESEL	_PB_Init
000caa   120a     bcf     0x0a, 0x4        
000cab   210c     call    0x010c           	CALL	_PB_Init
000cac   158a     bsf     0x0a, 0x3        	PAGESEL	$
000cad   120a     bcf     0x0a, 0x4        
                                           ;	.line	23; "main.c"	SSD_Init( SSD_L  , SSD_OFF  ,    SSD_NULL);
000cae   300a     movlw   0x0a             	MOVLW	0x0a
000caf   00fe     movwf   0x7e             	MOVWF	STK01
000cb0   3000     movlw   0x00             	MOVLW	0x00
000cb1   00ff     movwf   0x7f             	MOVWF	STK00
000cb2   3000     movlw   0x00             	MOVLW	0x00
000cb3   158a     bsf     0x0a, 0x3        	PAGESEL	_SSD_Init
000cb4   120a     bcf     0x0a, 0x4        
000cb5   2278     call    0x0278           	CALL	_SSD_Init
000cb6   158a     bsf     0x0a, 0x3        	PAGESEL	$
000cb7   120a     bcf     0x0a, 0x4        
                                           ;	.line	24; "main.c"	SSD_Init( SSD_R  , SSD_OFF  ,    SSD_NULL);
000cb8   300a     movlw   0x0a             	MOVLW	0x0a
000cb9   00fe     movwf   0x7e             	MOVWF	STK01
000cba   3000     movlw   0x00             	MOVLW	0x00
000cbb   00ff     movwf   0x7f             	MOVWF	STK00
000cbc   3003     movlw   0x03             	MOVLW	0x03
000cbd   158a     bsf     0x0a, 0x3        	PAGESEL	_SSD_Init
000cbe   120a     bcf     0x0a, 0x4        
000cbf   2278     call    0x0278           	CALL	_SSD_Init
000cc0   158a     bsf     0x0a, 0x3        	PAGESEL	$
000cc1   120a     bcf     0x0a, 0x4        
                                           ;	.line	25; "main.c"	SSD_Init( SSD_M  , SSD_OFF  ,    SSD_NULL);
000cc2   300a     movlw   0x0a             	MOVLW	0x0a
000cc3   00fe     movwf   0x7e             	MOVWF	STK01
000cc4   3000     movlw   0x00             	MOVLW	0x00
000cc5   00ff     movwf   0x7f             	MOVWF	STK00
000cc6   3001     movlw   0x01             	MOVLW	0x01
000cc7   158a     bsf     0x0a, 0x3        	PAGESEL	_SSD_Init
000cc8   120a     bcf     0x0a, 0x4        
000cc9   2278     call    0x0278           	CALL	_SSD_Init
000cca   158a     bsf     0x0a, 0x3        	PAGESEL	$
000ccb   120a     bcf     0x0a, 0x4        
                                           ;	.line	26; "main.c"	SSD_Init( SSD_N  , SSD_OFF  ,    SSD_NULL);
000ccc   300a     movlw   0x0a             	MOVLW	0x0a
000ccd   00fe     movwf   0x7e             	MOVWF	STK01
000cce   3000     movlw   0x00             	MOVLW	0x00
000ccf   00ff     movwf   0x7f             	MOVWF	STK00
000cd0   3002     movlw   0x02             	MOVLW	0x02
000cd1   158a     bsf     0x0a, 0x3        	PAGESEL	_SSD_Init
000cd2   120a     bcf     0x0a, 0x4        
000cd3   2278     call    0x0278           	CALL	_SSD_Init
000cd4   158a     bsf     0x0a, 0x3        	PAGESEL	$
000cd5   120a     bcf     0x0a, 0x4        
                                           ;	.line	29; "main.c"	DIG_CLK_init(normal);
000cd6   3000     movlw   0x00             	MOVLW	0x00
000cd7   158a     bsf     0x0a, 0x3        	PAGESEL	_DIG_CLK_init
000cd8   120a     bcf     0x0a, 0x4        
000cd9   27c7     call    0x07c7           	CALL	_DIG_CLK_init
000cda   158a     bsf     0x0a, 0x3        	PAGESEL	$
000cdb   120a     bcf     0x0a, 0x4        
                                           ;	.line	30; "main.c"	hour_init(20);
000cdc   3014     movlw   0x14             	MOVLW	0x14
000cdd   158a     bsf     0x0a, 0x3        	PAGESEL	_hour_init
000cde   120a     bcf     0x0a, 0x4        
000cdf   27cb     call    0x07cb           	CALL	_hour_init
000ce0   158a     bsf     0x0a, 0x3        	PAGESEL	$
000ce1   120a     bcf     0x0a, 0x4        
                                           ;	.line	31; "main.c"	minutes_init(40);
000ce2   3028     movlw   0x28             	MOVLW	0x28
000ce3   158a     bsf     0x0a, 0x3        	PAGESEL	_minutes_init
000ce4   120a     bcf     0x0a, 0x4        
000ce5   27d3     call    0x07d3           	CALL	_minutes_init
000ce6   158a     bsf     0x0a, 0x3        	PAGESEL	$
000ce7   120a     bcf     0x0a, 0x4        
                                           ;	.line	33; "main.c"	TMR0_Init();
000ce8   158a     bsf     0x0a, 0x3        	PAGESEL	_TMR0_Init
000ce9   120a     bcf     0x0a, 0x4        
000cea   27bb     call    0x07bb           	CALL	_TMR0_Init
000ceb   158a     bsf     0x0a, 0x3        	PAGESEL	$
000cec   120a     bcf     0x0a, 0x4        
                                           ;	.line	34; "main.c"	TMR0_Start();
000ced   158a     bsf     0x0a, 0x3        	PAGESEL	_TMR0_Start
000cee   120a     bcf     0x0a, 0x4        
000cef   27b2     call    0x07b2           	CALL	_TMR0_Start
000cf0   158a     bsf     0x0a, 0x3        	PAGESEL	$
000cf1   120a     bcf     0x0a, 0x4        
                                           _00106_DS_:
                                           ;	.line	38; "main.c"	while(1)
000cf2   2cf2     goto    0x04f2           	GOTO	_00106_DS_
                                           ;	.line	44; "main.c"	}
000cf3   0008     return                   	RETURN	
                                           ; exit point of _main


                                           ;	code size estimation:
                                           ;	   46+   24 =    70 instructions (  188 byte)

                                           	end
                                           ;--------------------------------------------------------
                                           ; File Created by SDCC : free open source ANSI-C Compiler
                                           ; Version 4.0.0 #11528 (MINGW64)
                                           ;--------------------------------------------------------
                                           ; PIC port for the 14-bit core
                                           ;--------------------------------------------------------
                                           ;	.file	"minutes.c"
                                           	list	p=16f877a
                                           	radix dec
                                           	include "p16f877a.inc"
                                                   LIST

                                           ;==========================================================================
                                           ; Build date : Oct 21 2015
                                           ;  MPASM PIC16F877A processor include
                                           ; 
                                           ;  (c) Copyright 1999-2015 Microchip Technology, All rights reserved
                                           ;==========================================================================

                                                   NOLIST
                                           ;--------------------------------------------------------
                                           ; external declarations
                                           ;--------------------------------------------------------
                                           	extern	__modsint
                                           	extern	__divsint
                                           	extern	_SSD_SetSymbol
                                           	extern	_get_mode
                                           	extern	_PB_GetState

                                           	extern PSAVE
                                           	extern SSAVE
                                           	extern WSAVE
                                           	extern STK12
                                           	extern STK11
                                           	extern STK10
                                           	extern STK09
                                           	extern STK08
                                           	extern STK07
                                           	extern STK06
                                           	extern STK05
                                           	extern STK04
                                           	extern STK03
                                           	extern STK02
                                           	extern STK01
                                           	extern STK00
                                           ;--------------------------------------------------------
                                           ; global declarations
                                           ;--------------------------------------------------------
                                           	global	_minutes_init
                                           	global	_minutes_update
                                           	global	_get_minutes

                                           ;--------------------------------------------------------
                                           ; global definitions
                                           ;--------------------------------------------------------
                                           ;--------------------------------------------------------
                                           ; absolute symbol definitions
                                           ;--------------------------------------------------------
                                           ;--------------------------------------------------------
                                           ; compiler-defined variables
                                           ;--------------------------------------------------------
                                           UDL_minutes_0	udata
                                           r0x1005	res	1
                                           r0x1006	res	1
                                           r0x1007	res	1
                                           ;--------------------------------------------------------
                                           ; initialized data
                                           ;--------------------------------------------------------

                                           IDD_minutes_0	idata
                                           _one_second_time
                                           	db	0x00	; 0


                                           IDD_minutes_1	idata
                                           _minutes
                                           	db	0x00	; 0


                                           IDD_minutes_2	idata
                                           _minutes_time
                                           	db	0x00, 0x00	; 0


                                           IDD_minutes_3	idata
                                           _SSD_data
                                           	db	0x0a	; 10

                                           ;--------------------------------------------------------
                                           ; initialized absolute data
                                           ;--------------------------------------------------------
                                           ;--------------------------------------------------------
                                           ; overlayable items in internal ram 
                                           ;--------------------------------------------------------
                                           ;	udata_ovr
                                           ;--------------------------------------------------------
                                           ; code
                                           ;--------------------------------------------------------
                                           code_minutes	code
                                           ;***
                                           ;  pBlock Stats: dbName = C
                                           ;***
                                           ;has an exit
                                           ;; Starting pCode block
                                           S_minutes__get_minutes	code
                                           _get_minutes:
                                           ; 2 exit points
                                           ;	.line	108; "minutes.c"	return minutes ;
000fcf   1283     bcf     0x03, 0x5        	BANKSEL	_minutes
000fd0   1703     bsf     0x03, 0x6        
000fd1   0810     movf    0x10, 0x0        	MOVF	_minutes,W
                                           ;	.line	109; "minutes.c"	}
000fd2   0008     return                   	RETURN	
                                           ; exit point of _get_minutes

                                           ;***
                                           ;  pBlock Stats: dbName = C
                                           ;***
                                           ;has an exit
                                           ;functions called:
                                           ;   _get_mode
                                           ;   __divsint
                                           ;   _SSD_SetSymbol
                                           ;   __modsint
                                           ;   _SSD_SetSymbol
                                           ;   _get_mode
                                           ;   _PB_GetState
                                           ;   _PB_GetState
                                           ;   __divsint
                                           ;   _SSD_SetSymbol
                                           ;   __modsint
                                           ;   _SSD_SetSymbol
                                           ;   _SSD_SetSymbol
                                           ;   _SSD_SetSymbol
                                           ;   _TOGGLE_passed_value_to_SSD
                                           ;   _get_mode
                                           ;   __divsint
                                           ;   _SSD_SetSymbol
                                           ;   __modsint
                                           ;   _SSD_SetSymbol
                                           ;   _get_mode
                                           ;   _PB_GetState
                                           ;   _PB_GetState
                                           ;   __divsint
                                           ;   _SSD_SetSymbol
                                           ;   __modsint
                                           ;   _SSD_SetSymbol
                                           ;   _SSD_SetSymbol
                                           ;   _SSD_SetSymbol
                                           ;   _TOGGLE_passed_value_to_SSD
                                           ;6 compiler assigned registers:
                                           ;   r0x1005
                                           ;   r0x1006
                                           ;   STK02
                                           ;   STK01
                                           ;   STK00
                                           ;   r0x1007
                                           ;; Starting pCode block
                                           S_minutes__minutes_update	code
                                           _minutes_update:
                                           ; 2 exit points
                                           ;	.line	46; "minutes.c"	if(get_mode()== normal)
0006e5   158a     bsf     0x0a, 0x3        	PAGESEL	_get_mode
0006e6   120a     bcf     0x0a, 0x4        
0006e7   27c3     call    0x07c3           	CALL	_get_mode
0006e8   118a     bcf     0x0a, 0x3        	PAGESEL	$
0006e9   120a     bcf     0x0a, 0x4        
0006ea   1683     bsf     0x03, 0x5        	BANKSEL	r0x1005
0006eb   1303     bcf     0x03, 0x6        
0006ec   00e3     movwf   0x63             	MOVWF	r0x1005
0006ed   0863     movf    0x63, 0x0        	MOVF	r0x1005,W
0006ee   1d03     btfss   0x03, 0x2        	BTFSS	STATUS,2
0006ef   2f54     goto    0x0754           	GOTO	_00140_DS_
                                           ;	.line	48; "minutes.c"	minutes_time++;    one_second_time =0;
0006f0   1283     bcf     0x03, 0x5        	BANKSEL	_minutes_time
0006f1   1303     bcf     0x03, 0x6        
0006f2   0aee     incf    0x6e, 0x1        	INCF	_minutes_time,F
0006f3   1903     btfsc   0x03, 0x2        	BTFSC	STATUS,2
0006f4   0aef     incf    0x6f, 0x1        	INCF	(_minutes_time + 1),F
0006f5   1683     bsf     0x03, 0x5        	BANKSEL	_one_second_time
0006f6   1303     bcf     0x03, 0x6        
0006f7   01ee     clrf    0x6e             	CLRF	_one_second_time
                                           ;	.line	51; "minutes.c"	if(minutes_time ==  NUM_OFF_TICK_PER_minutes ){  if(minutes < 60 ) {minutes++; }
0006f8   1283     bcf     0x03, 0x5        	BANKSEL	_minutes_time
0006f9   1303     bcf     0x03, 0x6        
0006fa   086e     movf    0x6e, 0x0        	MOVF	_minutes_time,W
0006fb   3a32     xorlw   0x32             	XORLW	0x32
0006fc   1d03     btfss   0x03, 0x2        	BTFSS	STATUS,2
0006fd   2f11     goto    0x0711           	GOTO	_00121_DS_
0006fe   086f     movf    0x6f, 0x0        	MOVF	(_minutes_time + 1),W
0006ff   3a00     xorlw   0x00             	XORLW	0x00
000700   1d03     btfss   0x03, 0x2        	BTFSS	STATUS,2
000701   2f11     goto    0x0711           	GOTO	_00121_DS_
                                           ;;unsigned compare: left < lit(0x3C=60), size=1
000702   303c     movlw   0x3c             	MOVLW	0x3c
000703   1283     bcf     0x03, 0x5        	BANKSEL	_minutes
000704   1703     bsf     0x03, 0x6        
000705   0210     subwf   0x10, 0x0        	SUBWF	_minutes,W
000706   1803     btfsc   0x03, 0x0        	BTFSC	STATUS,0
000707   2f0a     goto    0x070a           	GOTO	_00118_DS_
                                           ;;genSkipc:3307: created from rifx:00000000047A57B0
000708   0a90     incf    0x10, 0x1        	INCF	_minutes,F
000709   2f0d     goto    0x070d           	GOTO	_00119_DS_
                                           _00118_DS_:
                                           ;	.line	52; "minutes.c"	else              {minutes =0;}
00070a   1283     bcf     0x03, 0x5        	BANKSEL	_minutes
00070b   1703     bsf     0x03, 0x6        
00070c   0190     clrf    0x10             	CLRF	_minutes
                                           _00119_DS_:
                                           ;	.line	53; "minutes.c"	minutes_time=0;
00070d   1283     bcf     0x03, 0x5        	BANKSEL	_minutes_time
00070e   1303     bcf     0x03, 0x6        
00070f   01ee     clrf    0x6e             	CLRF	_minutes_time
000710   01ef     clrf    0x6f             	CLRF	(_minutes_time + 1)
                                           ;;106	MOVF	_minutes,W
                                           _00121_DS_:
                                           ;	.line	57; "minutes.c"	SSD_SetSymbol(SSD_N , minutes/10 );
000711   1683     bsf     0x03, 0x5        	BANKSEL	r0x1006
000712   1303     bcf     0x03, 0x6        
000713   01e4     clrf    0x64             	CLRF	r0x1006
000714   300a     movlw   0x0a             	MOVLW	0x0a
000715   00fd     movwf   0x7d             	MOVWF	STK02
000716   3000     movlw   0x00             	MOVLW	0x00
000717   00fe     movwf   0x7e             	MOVWF	STK01
                                           ;;105	MOVF	r0x1005,W
000718   1283     bcf     0x03, 0x5        	BANKSEL	_minutes
000719   1703     bsf     0x03, 0x6        
00071a   0810     movf    0x10, 0x0        	MOVF	_minutes,W
00071b   1683     bsf     0x03, 0x5        	BANKSEL	r0x1005
00071c   1303     bcf     0x03, 0x6        
00071d   00e3     movwf   0x63             	MOVWF	r0x1005
00071e   00ff     movwf   0x7f             	MOVWF	STK00
00071f   3000     movlw   0x00             	MOVLW	0x00
000720   158a     bsf     0x0a, 0x3        	PAGESEL	__divsint
000721   120a     bcf     0x0a, 0x4        
000722   23cf     call    0x03cf           	CALL	__divsint
000723   118a     bcf     0x0a, 0x3        	PAGESEL	$
000724   120a     bcf     0x0a, 0x4        
000725   1683     bsf     0x03, 0x5        	BANKSEL	r0x1006
000726   1303     bcf     0x03, 0x6        
000727   00e4     movwf   0x64             	MOVWF	r0x1006
000728   087f     movf    0x7f, 0x0        	MOVF	STK00,W
000729   00e3     movwf   0x63             	MOVWF	r0x1005
00072a   00e5     movwf   0x65             	MOVWF	r0x1007
00072b   00ff     movwf   0x7f             	MOVWF	STK00
00072c   3002     movlw   0x02             	MOVLW	0x02
00072d   158a     bsf     0x0a, 0x3        	PAGESEL	_SSD_SetSymbol
00072e   120a     bcf     0x0a, 0x4        
00072f   2747     call    0x0747           	CALL	_SSD_SetSymbol
000730   118a     bcf     0x0a, 0x3        	PAGESEL	$
000731   120a     bcf     0x0a, 0x4        
                                           ;;104	MOVF	_minutes,W
                                           ;	.line	58; "minutes.c"	SSD_SetSymbol( SSD_R, minutes%10);
000732   1683     bsf     0x03, 0x5        	BANKSEL	r0x1006
000733   1303     bcf     0x03, 0x6        
000734   01e4     clrf    0x64             	CLRF	r0x1006
000735   300a     movlw   0x0a             	MOVLW	0x0a
000736   00fd     movwf   0x7d             	MOVWF	STK02
000737   3000     movlw   0x00             	MOVLW	0x00
000738   00fe     movwf   0x7e             	MOVWF	STK01
                                           ;;103	MOVF	r0x1005,W
000739   1283     bcf     0x03, 0x5        	BANKSEL	_minutes
00073a   1703     bsf     0x03, 0x6        
00073b   0810     movf    0x10, 0x0        	MOVF	_minutes,W
00073c   1683     bsf     0x03, 0x5        	BANKSEL	r0x1005
00073d   1303     bcf     0x03, 0x6        
00073e   00e3     movwf   0x63             	MOVWF	r0x1005
00073f   00ff     movwf   0x7f             	MOVWF	STK00
000740   3000     movlw   0x00             	MOVLW	0x00
000741   158a     bsf     0x0a, 0x3        	PAGESEL	__modsint
000742   120a     bcf     0x0a, 0x4        
000743   2435     call    0x0435           	CALL	__modsint
000744   118a     bcf     0x0a, 0x3        	PAGESEL	$
000745   120a     bcf     0x0a, 0x4        
000746   1683     bsf     0x03, 0x5        	BANKSEL	r0x1006
000747   1303     bcf     0x03, 0x6        
000748   00e4     movwf   0x64             	MOVWF	r0x1006
000749   087f     movf    0x7f, 0x0        	MOVF	STK00,W
00074a   00e3     movwf   0x63             	MOVWF	r0x1005
00074b   00e5     movwf   0x65             	MOVWF	r0x1007
00074c   00ff     movwf   0x7f             	MOVWF	STK00
00074d   3003     movlw   0x03             	MOVLW	0x03
00074e   158a     bsf     0x0a, 0x3        	PAGESEL	_SSD_SetSymbol
00074f   120a     bcf     0x0a, 0x4        
000750   2747     call    0x0747           	CALL	_SSD_SetSymbol
000751   118a     bcf     0x0a, 0x3        	PAGESEL	$
000752   120a     bcf     0x0a, 0x4        
000753   2fff     goto    0x07ff           	GOTO	_00142_DS_
                                           _00140_DS_:
                                           ;	.line	62; "minutes.c"	else if(get_mode()== settting_minutes)
000754   158a     bsf     0x0a, 0x3        	PAGESEL	_get_mode
000755   120a     bcf     0x0a, 0x4        
000756   27c3     call    0x07c3           	CALL	_get_mode
000757   118a     bcf     0x0a, 0x3        	PAGESEL	$
000758   120a     bcf     0x0a, 0x4        
000759   1683     bsf     0x03, 0x5        	BANKSEL	r0x1005
00075a   1303     bcf     0x03, 0x6        
00075b   00e3     movwf   0x63             	MOVWF	r0x1005
00075c   3a02     xorlw   0x02             	XORLW	0x02
00075d   1d03     btfss   0x03, 0x2        	BTFSS	STATUS,2
00075e   2fff     goto    0x07ff           	GOTO	_00142_DS_
                                           ;	.line	64; "minutes.c"	one_second_time++;
00075f   1683     bsf     0x03, 0x5        	BANKSEL	_one_second_time
000760   1303     bcf     0x03, 0x6        
000761   0aee     incf    0x6e, 0x1        	INCF	_one_second_time,F
                                           ;	.line	65; "minutes.c"	if(PB_GetState(PB_MINUS) ==PB_PRE_PRESSED )
000762   3001     movlw   0x01             	MOVLW	0x01
000763   158a     bsf     0x0a, 0x3        	PAGESEL	_PB_GetState
000764   120a     bcf     0x0a, 0x4        
000765   2705     call    0x0705           	CALL	_PB_GetState
000766   118a     bcf     0x0a, 0x3        	PAGESEL	$
000767   120a     bcf     0x0a, 0x4        
000768   1683     bsf     0x03, 0x5        	BANKSEL	r0x1005
000769   1303     bcf     0x03, 0x6        
00076a   00e3     movwf   0x63             	MOVWF	r0x1005
00076b   3a01     xorlw   0x01             	XORLW	0x01
00076c   1d03     btfss   0x03, 0x2        	BTFSS	STATUS,2
00076d   2f79     goto    0x0779           	GOTO	_00126_DS_
                                           ;	.line	67; "minutes.c"	if(minutes == 0){ minutes =60 ; }
00076e   1283     bcf     0x03, 0x5        	BANKSEL	_minutes
00076f   1703     bsf     0x03, 0x6        
000770   0810     movf    0x10, 0x0        	MOVF	_minutes,W
000771   1d03     btfss   0x03, 0x2        	BTFSS	STATUS,2
000772   2f76     goto    0x0776           	GOTO	_00123_DS_
000773   303c     movlw   0x3c             	MOVLW	0x3c
000774   0090     movwf   0x10             	MOVWF	_minutes
000775   2f79     goto    0x0779           	GOTO	_00126_DS_
                                           _00123_DS_:
                                           ;	.line	68; "minutes.c"	else             { minutes--;    }
000776   1283     bcf     0x03, 0x5        	BANKSEL	_minutes
000777   1703     bsf     0x03, 0x6        
000778   0390     decf    0x10, 0x1        	DECF	_minutes,F
                                           _00126_DS_:
                                           ;	.line	71; "minutes.c"	if(PB_GetState(PB_PLUS) ==PB_PRE_PRESSED )
000779   3000     movlw   0x00             	MOVLW	0x00
00077a   158a     bsf     0x0a, 0x3        	PAGESEL	_PB_GetState
00077b   120a     bcf     0x0a, 0x4        
00077c   2705     call    0x0705           	CALL	_PB_GetState
00077d   118a     bcf     0x0a, 0x3        	PAGESEL	$
00077e   120a     bcf     0x0a, 0x4        
00077f   1683     bsf     0x03, 0x5        	BANKSEL	r0x1005
000780   1303     bcf     0x03, 0x6        
000781   00e3     movwf   0x63             	MOVWF	r0x1005
000782   3a01     xorlw   0x01             	XORLW	0x01
000783   1d03     btfss   0x03, 0x2        	BTFSS	STATUS,2
000784   2f90     goto    0x0790           	GOTO	_00131_DS_
                                           ;	.line	73; "minutes.c"	if(  minutes == 60){    minutes =0;}
000785   1283     bcf     0x03, 0x5        	BANKSEL	_minutes
000786   1703     bsf     0x03, 0x6        
000787   0810     movf    0x10, 0x0        	MOVF	_minutes,W
000788   3a3c     xorlw   0x3c             	XORLW	0x3c
000789   1d03     btfss   0x03, 0x2        	BTFSS	STATUS,2
00078a   2f8d     goto    0x078d           	GOTO	_00128_DS_
00078b   0190     clrf    0x10             	CLRF	_minutes
00078c   2f90     goto    0x0790           	GOTO	_00131_DS_
                                           _00128_DS_:
                                           ;	.line	74; "minutes.c"	else{                   minutes++; }
00078d   1283     bcf     0x03, 0x5        	BANKSEL	_minutes
00078e   1703     bsf     0x03, 0x6        
00078f   0a90     incf    0x10, 0x1        	INCF	_minutes,F
                                           _00131_DS_:
                                           ;	.line	77; "minutes.c"	minutes_time=0;
000790   1283     bcf     0x03, 0x5        	BANKSEL	_minutes_time
000791   1303     bcf     0x03, 0x6        
000792   01ee     clrf    0x6e             	CLRF	_minutes_time
000793   01ef     clrf    0x6f             	CLRF	(_minutes_time + 1)
                                           ;	.line	79; "minutes.c"	if(SSD_data !=SSD_NULL)
000794   1283     bcf     0x03, 0x5        	BANKSEL	_SSD_data
000795   1703     bsf     0x03, 0x6        
000796   0811     movf    0x11, 0x0        	MOVF	_SSD_data,W
                                           ;	.line	82; "minutes.c"	SSD_SetSymbol(SSD_N ,   SSD_data/10 );
000797   3a0a     xorlw   0x0a             	XORLW	0x0a
000798   1903     btfsc   0x03, 0x2        	BTFSC	STATUS,2
000799   2fdd     goto    0x07dd           	GOTO	_00133_DS_
                                           ;;102	MOVF	_SSD_data,W
00079a   1683     bsf     0x03, 0x5        	BANKSEL	r0x1006
00079b   1303     bcf     0x03, 0x6        
00079c   01e4     clrf    0x64             	CLRF	r0x1006
00079d   300a     movlw   0x0a             	MOVLW	0x0a
00079e   00fd     movwf   0x7d             	MOVWF	STK02
00079f   3000     movlw   0x00             	MOVLW	0x00
0007a0   00fe     movwf   0x7e             	MOVWF	STK01
                                           ;;101	MOVF	r0x1005,W
0007a1   1283     bcf     0x03, 0x5        	BANKSEL	_SSD_data
0007a2   1703     bsf     0x03, 0x6        
0007a3   0811     movf    0x11, 0x0        	MOVF	_SSD_data,W
0007a4   1683     bsf     0x03, 0x5        	BANKSEL	r0x1005
0007a5   1303     bcf     0x03, 0x6        
0007a6   00e3     movwf   0x63             	MOVWF	r0x1005
0007a7   00ff     movwf   0x7f             	MOVWF	STK00
0007a8   3000     movlw   0x00             	MOVLW	0x00
0007a9   158a     bsf     0x0a, 0x3        	PAGESEL	__divsint
0007aa   120a     bcf     0x0a, 0x4        
0007ab   23cf     call    0x03cf           	CALL	__divsint
0007ac   118a     bcf     0x0a, 0x3        	PAGESEL	$
0007ad   120a     bcf     0x0a, 0x4        
0007ae   1683     bsf     0x03, 0x5        	BANKSEL	r0x1006
0007af   1303     bcf     0x03, 0x6        
0007b0   00e4     movwf   0x64             	MOVWF	r0x1006
0007b1   087f     movf    0x7f, 0x0        	MOVF	STK00,W
0007b2   00e3     movwf   0x63             	MOVWF	r0x1005
0007b3   00e5     movwf   0x65             	MOVWF	r0x1007
0007b4   00ff     movwf   0x7f             	MOVWF	STK00
0007b5   3002     movlw   0x02             	MOVLW	0x02
0007b6   158a     bsf     0x0a, 0x3        	PAGESEL	_SSD_SetSymbol
0007b7   120a     bcf     0x0a, 0x4        
0007b8   2747     call    0x0747           	CALL	_SSD_SetSymbol
0007b9   118a     bcf     0x0a, 0x3        	PAGESEL	$
0007ba   120a     bcf     0x0a, 0x4        
                                           ;;100	MOVF	_SSD_data,W
                                           ;	.line	83; "minutes.c"	SSD_SetSymbol(SSD_R,   SSD_data%10);
0007bb   1683     bsf     0x03, 0x5        	BANKSEL	r0x1006
0007bc   1303     bcf     0x03, 0x6        
0007bd   01e4     clrf    0x64             	CLRF	r0x1006
0007be   300a     movlw   0x0a             	MOVLW	0x0a
0007bf   00fd     movwf   0x7d             	MOVWF	STK02
0007c0   3000     movlw   0x00             	MOVLW	0x00
0007c1   00fe     movwf   0x7e             	MOVWF	STK01
                                           ;;99	MOVF	r0x1005,W
0007c2   1283     bcf     0x03, 0x5        	BANKSEL	_SSD_data
0007c3   1703     bsf     0x03, 0x6        
0007c4   0811     movf    0x11, 0x0        	MOVF	_SSD_data,W
0007c5   1683     bsf     0x03, 0x5        	BANKSEL	r0x1005
0007c6   1303     bcf     0x03, 0x6        
0007c7   00e3     movwf   0x63             	MOVWF	r0x1005
0007c8   00ff     movwf   0x7f             	MOVWF	STK00
0007c9   3000     movlw   0x00             	MOVLW	0x00
0007ca   158a     bsf     0x0a, 0x3        	PAGESEL	__modsint
0007cb   120a     bcf     0x0a, 0x4        
0007cc   2435     call    0x0435           	CALL	__modsint
0007cd   118a     bcf     0x0a, 0x3        	PAGESEL	$
0007ce   120a     bcf     0x0a, 0x4        
0007cf   1683     bsf     0x03, 0x5        	BANKSEL	r0x1006
0007d0   1303     bcf     0x03, 0x6        
0007d1   00e4     movwf   0x64             	MOVWF	r0x1006
0007d2   087f     movf    0x7f, 0x0        	MOVF	STK00,W
0007d3   00e3     movwf   0x63             	MOVWF	r0x1005
0007d4   00e5     movwf   0x65             	MOVWF	r0x1007
0007d5   00ff     movwf   0x7f             	MOVWF	STK00
0007d6   3003     movlw   0x03             	MOVLW	0x03
0007d7   158a     bsf     0x0a, 0x3        	PAGESEL	_SSD_SetSymbol
0007d8   120a     bcf     0x0a, 0x4        
0007d9   2747     call    0x0747           	CALL	_SSD_SetSymbol
0007da   118a     bcf     0x0a, 0x3        	PAGESEL	$
0007db   120a     bcf     0x0a, 0x4        
0007dc   2ff1     goto    0x07f1           	GOTO	_00134_DS_
                                           _00133_DS_:
                                           ;	.line	89; "minutes.c"	SSD_SetSymbol(SSD_N ,   SSD_data );
0007dd   1283     bcf     0x03, 0x5        	BANKSEL	_SSD_data
0007de   1703     bsf     0x03, 0x6        
0007df   0811     movf    0x11, 0x0        	MOVF	_SSD_data,W
0007e0   00ff     movwf   0x7f             	MOVWF	STK00
0007e1   3002     movlw   0x02             	MOVLW	0x02
0007e2   158a     bsf     0x0a, 0x3        	PAGESEL	_SSD_SetSymbol
0007e3   120a     bcf     0x0a, 0x4        
0007e4   2747     call    0x0747           	CALL	_SSD_SetSymbol
0007e5   118a     bcf     0x0a, 0x3        	PAGESEL	$
0007e6   120a     bcf     0x0a, 0x4        
                                           ;	.line	90; "minutes.c"	SSD_SetSymbol(SSD_R,   SSD_data);
0007e7   1283     bcf     0x03, 0x5        	BANKSEL	_SSD_data
0007e8   1703     bsf     0x03, 0x6        
0007e9   0811     movf    0x11, 0x0        	MOVF	_SSD_data,W
0007ea   00ff     movwf   0x7f             	MOVWF	STK00
0007eb   3003     movlw   0x03             	MOVLW	0x03
0007ec   158a     bsf     0x0a, 0x3        	PAGESEL	_SSD_SetSymbol
0007ed   120a     bcf     0x0a, 0x4        
0007ee   2747     call    0x0747           	CALL	_SSD_SetSymbol
0007ef   118a     bcf     0x0a, 0x3        	PAGESEL	$
0007f0   120a     bcf     0x0a, 0x4        
                                           _00134_DS_:
                                           ;	.line	93; "minutes.c"	if( one_second_time == NUM_OF_TICKS_PER_ONE_SECOND)
0007f1   1683     bsf     0x03, 0x5        	BANKSEL	_one_second_time
0007f2   1303     bcf     0x03, 0x6        
0007f3   086e     movf    0x6e, 0x0        	MOVF	_one_second_time,W
0007f4   3a0a     xorlw   0x0a             	XORLW	0x0a
0007f5   1d03     btfss   0x03, 0x2        	BTFSS	STATUS,2
0007f6   2fff     goto    0x07ff           	GOTO	_00142_DS_
                                           ;	.line	95; "minutes.c"	TOGGLE_passed_value_to_SSD();
0007f7   158a     bsf     0x0a, 0x3        	PAGESEL	_TOGGLE_passed_value_to_SSD
0007f8   120a     bcf     0x0a, 0x4        
0007f9   2789     call    0x0789           	CALL	_TOGGLE_passed_value_to_SSD
0007fa   118a     bcf     0x0a, 0x3        	PAGESEL	$
0007fb   120a     bcf     0x0a, 0x4        
                                           ;	.line	97; "minutes.c"	one_second_time =0;
0007fc   1683     bsf     0x03, 0x5        	BANKSEL	_one_second_time
0007fd   1303     bcf     0x03, 0x6        
0007fe   01ee     clrf    0x6e             	CLRF	_one_second_time
                                           _00142_DS_:
                                           ;	.line	104; "minutes.c"	}
0007ff   0008     return                   	RETURN	
                                           ; exit point of _minutes_update

                                           ;***
                                           ;  pBlock Stats: dbName = C
                                           ;***
                                           ;has an exit
                                           ;; Starting pCode block
                                           S_minutes__minutes_init	code
                                           _minutes_init:
                                           ; 2 exit points
                                           ;	.line	36; "minutes.c"	void minutes_init(unsigned char init_minutes)
000fd3   1283     bcf     0x03, 0x5        	BANKSEL	_minutes
000fd4   1703     bsf     0x03, 0x6        
000fd5   0090     movwf   0x10             	MOVWF	_minutes
                                           ;	.line	39; "minutes.c"	}
000fd6   0008     return                   	RETURN	
                                           ; exit point of _minutes_init

                                           ;***
                                           ;  pBlock Stats: dbName = C
                                           ;***
                                           ;has an exit
                                           ;; Starting pCode block
                                           S_minutes__TOGGLE_passed_value_to_SSD	code
                                           _TOGGLE_passed_value_to_SSD:
                                           ; 2 exit points
                                           ;	.line	22; "minutes.c"	if(SSD_data ==  SSD_NULL)
000f89   1283     bcf     0x03, 0x5        	BANKSEL	_SSD_data
000f8a   1703     bsf     0x03, 0x6        
000f8b   0811     movf    0x11, 0x0        	MOVF	_SSD_data,W
000f8c   3a0a     xorlw   0x0a             	XORLW	0x0a
000f8d   1d03     btfss   0x03, 0x2        	BTFSS	STATUS,2
000f8e   2f96     goto    0x0796           	GOTO	_00106_DS_
                                           ;	.line	24; "minutes.c"	SSD_data = minutes ;
000f8f   1283     bcf     0x03, 0x5        	BANKSEL	_minutes
000f90   1703     bsf     0x03, 0x6        
000f91   0810     movf    0x10, 0x0        	MOVF	_minutes,W
000f92   1283     bcf     0x03, 0x5        	BANKSEL	_SSD_data
000f93   1703     bsf     0x03, 0x6        
000f94   0091     movwf   0x11             	MOVWF	_SSD_data
000f95   2f9a     goto    0x079a           	GOTO	_00108_DS_
                                           _00106_DS_:
                                           ;	.line	28; "minutes.c"	SSD_data = SSD_NULL;
000f96   300a     movlw   0x0a             	MOVLW	0x0a
000f97   1283     bcf     0x03, 0x5        	BANKSEL	_SSD_data
000f98   1703     bsf     0x03, 0x6        
000f99   0091     movwf   0x11             	MOVWF	_SSD_data
                                           _00108_DS_:
                                           ;	.line	34; "minutes.c"	}
000f9a   0008     return                   	RETURN	
                                           ; exit point of _TOGGLE_passed_value_to_SSD


                                           ;	code size estimation:
                                           ;	  163+   73 =   236 instructions (  618 byte)

                                           	end
                                           ;--------------------------------------------------------
                                           ; File Created by SDCC : free open source ANSI-C Compiler
                                           ; Version 4.0.0 #11528 (MINGW64)
                                           ;--------------------------------------------------------
                                           ; PIC port for the 14-bit core
                                           ;--------------------------------------------------------
                                           ;	.file	"PB.c"
                                           	list	p=16f877a
                                           	radix dec
                                           	include "p16f877a.inc"
                                                   LIST

                                           ;==========================================================================
                                           ; Build date : Oct 21 2015
                                           ;  MPASM PIC16F877A processor include
                                           ; 
                                           ;  (c) Copyright 1999-2015 Microchip Technology, All rights reserved
                                           ;==========================================================================

                                                   NOLIST
                                           ;--------------------------------------------------------
                                           ; external declarations
                                           ;--------------------------------------------------------
                                           	extern	__muluchar
                                           	extern	_GPIO_GetPortPinState
                                           	extern	_GPIO_InitPortPin

                                           	extern PSAVE
                                           	extern SSAVE
                                           	extern WSAVE
                                           	extern STK12
                                           	extern STK11
                                           	extern STK10
                                           	extern STK09
                                           	extern STK08
                                           	extern STK07
                                           	extern STK06
                                           	extern STK05
                                           	extern STK04
                                           	extern STK03
                                           	extern STK02
                                           	extern STK01
                                           	extern STK00
                                           ;--------------------------------------------------------
                                           ; global declarations
                                           ;--------------------------------------------------------
                                           	global	_PB_Init
                                           	global	_PB_Update
                                           	global	_PB_GetState

                                           ;--------------------------------------------------------
                                           ; global definitions
                                           ;--------------------------------------------------------
                                           UD_PB_0	udata
                                           _pb_info	res	12

                                           ;--------------------------------------------------------
                                           ; absolute symbol definitions
                                           ;--------------------------------------------------------
                                           ;--------------------------------------------------------
                                           ; compiler-defined variables
                                           ;--------------------------------------------------------
                                           UDL_PB_0	udata
                                           r0x101B	res	1
                                           r0x101C	res	1
                                           r0x101D	res	1
                                           r0x101E	res	1
                                           r0x101F	res	1
                                           r0x100F	res	1
                                           r0x1010	res	1
                                           r0x1011	res	1
                                           r0x1012	res	1
                                           r0x1013	res	1
                                           r0x1014	res	1
                                           r0x1015	res	1
                                           r0x1016	res	1
                                           r0x1017	res	1
                                           r0x1018	res	1
                                           r0x1019	res	1
                                           r0x101A	res	1
                                           r0x100C	res	1
                                           r0x100D	res	1
                                           ;--------------------------------------------------------
                                           ; initialized data
                                           ;--------------------------------------------------------
                                           ;--------------------------------------------------------
                                           ; initialized absolute data
                                           ;--------------------------------------------------------
                                           ;--------------------------------------------------------
                                           ; overlayable items in internal ram 
                                           ;--------------------------------------------------------
                                           ;	udata_ovr
                                           ;--------------------------------------------------------
                                           ; code
                                           ;--------------------------------------------------------
                                           code_PB	code
                                           ;***
                                           ;  pBlock Stats: dbName = C
                                           ;***
                                           ;has an exit
                                           ;functions called:
                                           ;   __muluchar
                                           ;   __muluchar
                                           ;4 compiler assigned registers:
                                           ;   r0x100C
                                           ;   STK00
                                           ;   r0x100D
                                           ;   r0x100E
                                           ;; Starting pCode block
                                           S_PB__PB_GetState	code
                                           _PB_GetState:
                                           ; 2 exit points
                                           ;	.line	129; "PB.c"	tPB_State PB_GetState(tPB pb)
000f05   1283     bcf     0x03, 0x5        	BANKSEL	r0x100C
000f06   1303     bcf     0x03, 0x6        
000f07   00e0     movwf   0x60             	MOVWF	r0x100C
                                           ;	.line	133; "PB.c"	ret = pb_info[pb].state;
000f08   3003     movlw   0x03             	MOVLW	0x03
000f09   00ff     movwf   0x7f             	MOVWF	STK00
000f0a   0860     movf    0x60, 0x0        	MOVF	r0x100C,W
000f0b   158a     bsf     0x0a, 0x3        	PAGESEL	__muluchar
000f0c   120a     bcf     0x0a, 0x4        
000f0d   26da     call    0x06da           	CALL	__muluchar
000f0e   158a     bsf     0x0a, 0x3        	PAGESEL	$
000f0f   120a     bcf     0x0a, 0x4        
000f10   1283     bcf     0x03, 0x5        	BANKSEL	r0x100D
000f11   1303     bcf     0x03, 0x6        
000f12   00e1     movwf   0x61             	MOVWF	r0x100D
000f13   087f     movf    0x7f, 0x0        	MOVF	STK00,W
000f14   00e0     movwf   0x60             	MOVWF	r0x100C
000f15   3e62     addlw   0x62             	ADDLW	(_pb_info + 0)
000f16   00e0     movwf   0x60             	MOVWF	r0x100C
000f17   0861     movf    0x61, 0x0        	MOVF	r0x100D,W
000f18   1803     btfsc   0x03, 0x0        	BTFSC	STATUS,0
000f19   0f61     incfsz  0x61, 0x0        	INCFSZ	r0x100D,W
000f1a   3e00     addlw   0x00             	ADDLW	high (_pb_info + 0)
000f1b   00e1     movwf   0x61             	MOVWF	r0x100D
000f1c   3002     movlw   0x02             	MOVLW	0x02
000f1d   07e0     addwf   0x60, 0x1        	ADDWF	r0x100C,F
000f1e   1803     btfsc   0x03, 0x0        	BTFSC	STATUS,0
000f1f   0ae1     incf    0x61, 0x1        	INCF	r0x100D,F
000f20   0860     movf    0x60, 0x0        	MOVF	r0x100C,W
000f21   1283     bcf     0x03, 0x5        	BANKSEL	FSR
000f22   1303     bcf     0x03, 0x6        
000f23   0084     movwf   0x04             	MOVWF	FSR
000f24   1383     bcf     0x03, 0x7        	BCF	STATUS,7
000f25   1283     bcf     0x03, 0x5        	BANKSEL	r0x100D
000f26   1303     bcf     0x03, 0x6        
000f27   1861     btfsc   0x61, 0x0        	BTFSC	r0x100D,0
000f28   1783     bsf     0x03, 0x7        	BSF	STATUS,7
000f29   1283     bcf     0x03, 0x5        	BANKSEL	INDF
000f2a   1303     bcf     0x03, 0x6        
000f2b   0800     movf    0x00, 0x0        	MOVF	INDF,W
                                           ;;1	MOVWF	r0x100E
                                           ;	.line	136; "PB.c"	}
000f2c   0008     return                   	RETURN	
                                           ; exit point of _PB_GetState

                                           ;***
                                           ;  pBlock Stats: dbName = C
                                           ;***
                                           ;has an exit
                                           ;functions called:
                                           ;   _GPIO_GetPortPinState
                                           ;   _GPIO_GetPortPinState
                                           ;   _GPIO_GetPortPinState
                                           ;   _GPIO_GetPortPinState
                                           ;   _GPIO_GetPortPinState
                                           ;   _GPIO_GetPortPinState
                                           ;   _GPIO_GetPortPinState
                                           ;   _GPIO_GetPortPinState
                                           ;13 compiler assigned registers:
                                           ;   r0x100F
                                           ;   r0x1010
                                           ;   r0x1011
                                           ;   r0x1012
                                           ;   r0x1013
                                           ;   r0x1014
                                           ;   r0x1015
                                           ;   r0x1016
                                           ;   r0x1017
                                           ;   r0x1018
                                           ;   STK00
                                           ;   r0x1019
                                           ;   r0x101A
                                           ;; Starting pCode block
                                           S_PB__PB_Update	code
                                           _PB_Update:
                                           ; 2 exit points
                                           ;	.line	66; "PB.c"	for (current_button = PB_PLUS; current_button < PB_UNUSED_2 ; current_button++)
000056   1283     bcf     0x03, 0x5        	BANKSEL	r0x100F
000057   1303     bcf     0x03, 0x6        
000058   01d4     clrf    0x54             	CLRF	r0x100F
000059   01d5     clrf    0x55             	CLRF	r0x1010
00005a   01d6     clrf    0x56             	CLRF	r0x1011
00005b   01d7     clrf    0x57             	CLRF	r0x1012
00005c   01d8     clrf    0x58             	CLRF	r0x1013
                                           _00157_DS_:
                                           ;	.line	69; "PB.c"	pb_info[current_button].samples[0] = pb_info[current_button].samples[1];
00005d   1283     bcf     0x03, 0x5        	BANKSEL	r0x1012
00005e   1303     bcf     0x03, 0x6        
00005f   0857     movf    0x57, 0x0        	MOVF	r0x1012,W
000060   3e62     addlw   0x62             	ADDLW	(_pb_info + 0)
000061   00d9     movwf   0x59             	MOVWF	r0x1014
000062   3000     movlw   0x00             	MOVLW	high (_pb_info + 0)
000063   00da     movwf   0x5a             	MOVWF	r0x1015
000064   0858     movf    0x58, 0x0        	MOVF	r0x1013,W
000065   1803     btfsc   0x03, 0x0        	BTFSC	STATUS,0
000066   0f58     incfsz  0x58, 0x0        	INCFSZ	r0x1013,W
000067   07da     addwf   0x5a, 0x1        	ADDWF	r0x1015,F
000068   0857     movf    0x57, 0x0        	MOVF	r0x1012,W
000069   3e62     addlw   0x62             	ADDLW	(_pb_info + 0)
00006a   00db     movwf   0x5b             	MOVWF	r0x1016
00006b   3000     movlw   0x00             	MOVLW	high (_pb_info + 0)
00006c   00dc     movwf   0x5c             	MOVWF	r0x1017
00006d   0858     movf    0x58, 0x0        	MOVF	r0x1013,W
00006e   1803     btfsc   0x03, 0x0        	BTFSC	STATUS,0
00006f   0f58     incfsz  0x58, 0x0        	INCFSZ	r0x1013,W
000070   07dc     addwf   0x5c, 0x1        	ADDWF	r0x1017,F
000071   0adb     incf    0x5b, 0x1        	INCF	r0x1016,F
000072   1903     btfsc   0x03, 0x2        	BTFSC	STATUS,2
000073   0adc     incf    0x5c, 0x1        	INCF	r0x1017,F
000074   085b     movf    0x5b, 0x0        	MOVF	r0x1016,W
000075   1283     bcf     0x03, 0x5        	BANKSEL	FSR
000076   1303     bcf     0x03, 0x6        
000077   0084     movwf   0x04             	MOVWF	FSR
000078   1383     bcf     0x03, 0x7        	BCF	STATUS,7
000079   1283     bcf     0x03, 0x5        	BANKSEL	r0x1017
00007a   1303     bcf     0x03, 0x6        
00007b   185c     btfsc   0x5c, 0x0        	BTFSC	r0x1017,0
00007c   1783     bsf     0x03, 0x7        	BSF	STATUS,7
00007d   1283     bcf     0x03, 0x5        	BANKSEL	INDF
00007e   1303     bcf     0x03, 0x6        
00007f   0800     movf    0x00, 0x0        	MOVF	INDF,W
000080   1283     bcf     0x03, 0x5        	BANKSEL	r0x1018
000081   1303     bcf     0x03, 0x6        
000082   00dd     movwf   0x5d             	MOVWF	r0x1018
000083   0859     movf    0x59, 0x0        	MOVF	r0x1014,W
000084   1283     bcf     0x03, 0x5        	BANKSEL	FSR
000085   1303     bcf     0x03, 0x6        
000086   0084     movwf   0x04             	MOVWF	FSR
000087   1383     bcf     0x03, 0x7        	BCF	STATUS,7
000088   1283     bcf     0x03, 0x5        	BANKSEL	r0x1015
000089   1303     bcf     0x03, 0x6        
00008a   185a     btfsc   0x5a, 0x0        	BTFSC	r0x1015,0
00008b   1783     bsf     0x03, 0x7        	BSF	STATUS,7
00008c   085d     movf    0x5d, 0x0        	MOVF	r0x1018,W
00008d   1283     bcf     0x03, 0x5        	BANKSEL	INDF
00008e   1303     bcf     0x03, 0x6        
00008f   0080     movwf   0x00             	MOVWF	INDF
                                           ;;swapping arguments (AOP_TYPEs 1/2)
                                           ;;unsigned compare: left >= lit(0x4=4), size=1
                                           ;	.line	71; "PB.c"	switch(current_button)
000090   3004     movlw   0x04             	MOVLW	0x04
000091   1283     bcf     0x03, 0x5        	BANKSEL	r0x100F
000092   1303     bcf     0x03, 0x6        
000093   0254     subwf   0x54, 0x0        	SUBWF	r0x100F,W
000094   1803     btfsc   0x03, 0x0        	BTFSC	STATUS,0
000095   290b     goto    0x010b           	GOTO	_00139_DS_
                                           ;;genSkipc:3307: created from rifx:00000000047A57B0
000096   3000     movlw   0x00             	MOVLW	HIGH(_00199_DS_)
000097   1283     bcf     0x03, 0x5        	BANKSEL	PCLATH
000098   1303     bcf     0x03, 0x6        
000099   008a     movwf   0x0a             	MOVWF	PCLATH
00009a   30a4     movlw   0xa4             	MOVLW	_00199_DS_
00009b   1283     bcf     0x03, 0x5        	BANKSEL	r0x100F
00009c   1303     bcf     0x03, 0x6        
00009d   0754     addwf   0x54, 0x0        	ADDWF	r0x100F,W
00009e   1c03     btfss   0x03, 0x0        	BTFSS	STATUS,0
00009f   28a3     goto    0x00a3           	GOTO	_00001_DS_
0000a0   1283     bcf     0x03, 0x5        	BANKSEL	PCLATH
0000a1   1303     bcf     0x03, 0x6        
0000a2   0a8a     incf    0x0a, 0x1        	INCF	PCLATH,F
                                           _00001_DS_:
0000a3   0082     movwf   0x02             	MOVWF	PCL
                                           _00199_DS_:
0000a4   28a8     goto    0x00a8           	GOTO	_00134_DS_
0000a5   28c1     goto    0x00c1           	GOTO	_00135_DS_
0000a6   28da     goto    0x00da           	GOTO	_00136_DS_
0000a7   28f3     goto    0x00f3           	GOTO	_00137_DS_
                                           _00134_DS_:
                                           ;	.line	74; "PB.c"	pb_info[current_button].samples[1] = GPIO_GetPortPinState(PB_PLUS_PORT, PB_PLUS_PIN);
0000a8   3000     movlw   0x00             	MOVLW	0x00
0000a9   00ff     movwf   0x7f             	MOVWF	STK00
0000aa   3001     movlw   0x01             	MOVLW	0x01
0000ab   118a     bcf     0x0a, 0x3        	PAGESEL	_GPIO_GetPortPinState
0000ac   120a     bcf     0x0a, 0x4        
0000ad   25c6     call    0x05c6           	CALL	_GPIO_GetPortPinState
0000ae   118a     bcf     0x0a, 0x3        	PAGESEL	$
0000af   120a     bcf     0x0a, 0x4        
0000b0   1283     bcf     0x03, 0x5        	BANKSEL	r0x1014
0000b1   1303     bcf     0x03, 0x6        
0000b2   00d9     movwf   0x59             	MOVWF	r0x1014
0000b3   085b     movf    0x5b, 0x0        	MOVF	r0x1016,W
0000b4   1283     bcf     0x03, 0x5        	BANKSEL	FSR
0000b5   1303     bcf     0x03, 0x6        
0000b6   0084     movwf   0x04             	MOVWF	FSR
0000b7   1383     bcf     0x03, 0x7        	BCF	STATUS,7
0000b8   1283     bcf     0x03, 0x5        	BANKSEL	r0x1017
0000b9   1303     bcf     0x03, 0x6        
0000ba   185c     btfsc   0x5c, 0x0        	BTFSC	r0x1017,0
0000bb   1783     bsf     0x03, 0x7        	BSF	STATUS,7
0000bc   0859     movf    0x59, 0x0        	MOVF	r0x1014,W
0000bd   1283     bcf     0x03, 0x5        	BANKSEL	INDF
0000be   1303     bcf     0x03, 0x6        
0000bf   0080     movwf   0x00             	MOVWF	INDF
                                           ;	.line	75; "PB.c"	break;
0000c0   290b     goto    0x010b           	GOTO	_00139_DS_
                                           _00135_DS_:
                                           ;	.line	77; "PB.c"	pb_info[current_button].samples[1] = GPIO_GetPortPinState(PB_MINUS_PORT, PB_MINUS_PIN);
0000c1   3001     movlw   0x01             	MOVLW	0x01
0000c2   00ff     movwf   0x7f             	MOVWF	STK00
0000c3   3001     movlw   0x01             	MOVLW	0x01
0000c4   118a     bcf     0x0a, 0x3        	PAGESEL	_GPIO_GetPortPinState
0000c5   120a     bcf     0x0a, 0x4        
0000c6   25c6     call    0x05c6           	CALL	_GPIO_GetPortPinState
0000c7   118a     bcf     0x0a, 0x3        	PAGESEL	$
0000c8   120a     bcf     0x0a, 0x4        
0000c9   1283     bcf     0x03, 0x5        	BANKSEL	r0x1014
0000ca   1303     bcf     0x03, 0x6        
0000cb   00d9     movwf   0x59             	MOVWF	r0x1014
0000cc   085b     movf    0x5b, 0x0        	MOVF	r0x1016,W
0000cd   1283     bcf     0x03, 0x5        	BANKSEL	FSR
0000ce   1303     bcf     0x03, 0x6        
0000cf   0084     movwf   0x04             	MOVWF	FSR
0000d0   1383     bcf     0x03, 0x7        	BCF	STATUS,7
0000d1   1283     bcf     0x03, 0x5        	BANKSEL	r0x1017
0000d2   1303     bcf     0x03, 0x6        
0000d3   185c     btfsc   0x5c, 0x0        	BTFSC	r0x1017,0
0000d4   1783     bsf     0x03, 0x7        	BSF	STATUS,7
0000d5   0859     movf    0x59, 0x0        	MOVF	r0x1014,W
0000d6   1283     bcf     0x03, 0x5        	BANKSEL	INDF
0000d7   1303     bcf     0x03, 0x6        
0000d8   0080     movwf   0x00             	MOVWF	INDF
                                           ;	.line	78; "PB.c"	break;
0000d9   290b     goto    0x010b           	GOTO	_00139_DS_
                                           _00136_DS_:
                                           ;	.line	80; "PB.c"	pb_info[current_button].samples[1] = GPIO_GetPortPinState(PB_SET_PORT, PB_SET_PIN);
0000da   3002     movlw   0x02             	MOVLW	0x02
0000db   00ff     movwf   0x7f             	MOVWF	STK00
0000dc   3001     movlw   0x01             	MOVLW	0x01
0000dd   118a     bcf     0x0a, 0x3        	PAGESEL	_GPIO_GetPortPinState
0000de   120a     bcf     0x0a, 0x4        
0000df   25c6     call    0x05c6           	CALL	_GPIO_GetPortPinState
0000e0   118a     bcf     0x0a, 0x3        	PAGESEL	$
0000e1   120a     bcf     0x0a, 0x4        
0000e2   1283     bcf     0x03, 0x5        	BANKSEL	r0x1014
0000e3   1303     bcf     0x03, 0x6        
0000e4   00d9     movwf   0x59             	MOVWF	r0x1014
0000e5   085b     movf    0x5b, 0x0        	MOVF	r0x1016,W
0000e6   1283     bcf     0x03, 0x5        	BANKSEL	FSR
0000e7   1303     bcf     0x03, 0x6        
0000e8   0084     movwf   0x04             	MOVWF	FSR
0000e9   1383     bcf     0x03, 0x7        	BCF	STATUS,7
0000ea   1283     bcf     0x03, 0x5        	BANKSEL	r0x1017
0000eb   1303     bcf     0x03, 0x6        
0000ec   185c     btfsc   0x5c, 0x0        	BTFSC	r0x1017,0
0000ed   1783     bsf     0x03, 0x7        	BSF	STATUS,7
0000ee   0859     movf    0x59, 0x0        	MOVF	r0x1014,W
0000ef   1283     bcf     0x03, 0x5        	BANKSEL	INDF
0000f0   1303     bcf     0x03, 0x6        
0000f1   0080     movwf   0x00             	MOVWF	INDF
                                           ;	.line	81; "PB.c"	break;
0000f2   290b     goto    0x010b           	GOTO	_00139_DS_
                                           _00137_DS_:
                                           ;	.line	83; "PB.c"	pb_info[current_button].samples[1] = GPIO_GetPortPinState(PORT_B, 3);
0000f3   3003     movlw   0x03             	MOVLW	0x03
0000f4   00ff     movwf   0x7f             	MOVWF	STK00
0000f5   3001     movlw   0x01             	MOVLW	0x01
0000f6   118a     bcf     0x0a, 0x3        	PAGESEL	_GPIO_GetPortPinState
0000f7   120a     bcf     0x0a, 0x4        
0000f8   25c6     call    0x05c6           	CALL	_GPIO_GetPortPinState
0000f9   118a     bcf     0x0a, 0x3        	PAGESEL	$
0000fa   120a     bcf     0x0a, 0x4        
0000fb   1283     bcf     0x03, 0x5        	BANKSEL	r0x1014
0000fc   1303     bcf     0x03, 0x6        
0000fd   00d9     movwf   0x59             	MOVWF	r0x1014
0000fe   085b     movf    0x5b, 0x0        	MOVF	r0x1016,W
0000ff   1283     bcf     0x03, 0x5        	BANKSEL	FSR
000100   1303     bcf     0x03, 0x6        
000101   0084     movwf   0x04             	MOVWF	FSR
000102   1383     bcf     0x03, 0x7        	BCF	STATUS,7
000103   1283     bcf     0x03, 0x5        	BANKSEL	r0x1017
000104   1303     bcf     0x03, 0x6        
000105   185c     btfsc   0x5c, 0x0        	BTFSC	r0x1017,0
000106   1783     bsf     0x03, 0x7        	BSF	STATUS,7
000107   0859     movf    0x59, 0x0        	MOVF	r0x1014,W
000108   1283     bcf     0x03, 0x5        	BANKSEL	INDF
000109   1303     bcf     0x03, 0x6        
00010a   0080     movwf   0x00             	MOVWF	INDF
                                           _00139_DS_:
                                           ;	.line	91; "PB.c"	switch(pb_info[current_button].state)
00010b   1283     bcf     0x03, 0x5        	BANKSEL	r0x1010
00010c   1303     bcf     0x03, 0x6        
00010d   0855     movf    0x55, 0x0        	MOVF	r0x1010,W
00010e   3e62     addlw   0x62             	ADDLW	(_pb_info + 0)
00010f   00d9     movwf   0x59             	MOVWF	r0x1014
000110   3000     movlw   0x00             	MOVLW	high (_pb_info + 0)
000111   00da     movwf   0x5a             	MOVWF	r0x1015
000112   0856     movf    0x56, 0x0        	MOVF	r0x1011,W
000113   1803     btfsc   0x03, 0x0        	BTFSC	STATUS,0
000114   0f56     incfsz  0x56, 0x0        	INCFSZ	r0x1011,W
000115   07da     addwf   0x5a, 0x1        	ADDWF	r0x1015,F
000116   3002     movlw   0x02             	MOVLW	0x02
000117   0759     addwf   0x59, 0x0        	ADDWF	r0x1014,W
000118   00db     movwf   0x5b             	MOVWF	r0x1016
000119   01dc     clrf    0x5c             	CLRF	r0x1017
00011a   0ddc     rlf     0x5c, 0x1        	RLF	r0x1017,F
00011b   085a     movf    0x5a, 0x0        	MOVF	r0x1015,W
00011c   07dc     addwf   0x5c, 0x1        	ADDWF	r0x1017,F
00011d   085b     movf    0x5b, 0x0        	MOVF	r0x1016,W
00011e   1283     bcf     0x03, 0x5        	BANKSEL	FSR
00011f   1303     bcf     0x03, 0x6        
000120   0084     movwf   0x04             	MOVWF	FSR
000121   1383     bcf     0x03, 0x7        	BCF	STATUS,7
000122   1283     bcf     0x03, 0x5        	BANKSEL	r0x1017
000123   1303     bcf     0x03, 0x6        
000124   185c     btfsc   0x5c, 0x0        	BTFSC	r0x1017,0
000125   1783     bsf     0x03, 0x7        	BSF	STATUS,7
000126   1283     bcf     0x03, 0x5        	BANKSEL	INDF
000127   1303     bcf     0x03, 0x6        
000128   0800     movf    0x00, 0x0        	MOVF	INDF,W
000129   1283     bcf     0x03, 0x5        	BANKSEL	r0x1018
00012a   1303     bcf     0x03, 0x6        
00012b   00dd     movwf   0x5d             	MOVWF	r0x1018
                                           ;;swapping arguments (AOP_TYPEs 1/2)
                                           ;;unsigned compare: left >= lit(0x4=4), size=1
00012c   3004     movlw   0x04             	MOVLW	0x04
00012d   025d     subwf   0x5d, 0x0        	SUBWF	r0x1018,W
00012e   1803     btfsc   0x03, 0x0        	BTFSC	STATUS,0
00012f   2a05     goto    0x0205           	GOTO	_00158_DS_
                                           ;;genSkipc:3307: created from rifx:00000000047A57B0
000130   3001     movlw   0x01             	MOVLW	HIGH(_00201_DS_)
000131   1283     bcf     0x03, 0x5        	BANKSEL	PCLATH
000132   1303     bcf     0x03, 0x6        
000133   008a     movwf   0x0a             	MOVWF	PCLATH
000134   303e     movlw   0x3e             	MOVLW	_00201_DS_
000135   1283     bcf     0x03, 0x5        	BANKSEL	r0x1018
000136   1303     bcf     0x03, 0x6        
000137   075d     addwf   0x5d, 0x0        	ADDWF	r0x1018,W
000138   1c03     btfss   0x03, 0x0        	BTFSS	STATUS,0
000139   293d     goto    0x013d           	GOTO	_00002_DS_
00013a   1283     bcf     0x03, 0x5        	BANKSEL	PCLATH
00013b   1303     bcf     0x03, 0x6        
00013c   0a8a     incf    0x0a, 0x1        	INCF	PCLATH,F
                                           _00002_DS_:
00013d   0082     movwf   0x02             	MOVWF	PCL
                                           _00201_DS_:
00013e   2942     goto    0x0142           	GOTO	_00140_DS_
00013f   297d     goto    0x017d           	GOTO	_00144_DS_
000140   29a6     goto    0x01a6           	GOTO	_00147_DS_
000141   29e1     goto    0x01e1           	GOTO	_00151_DS_
                                           _00140_DS_:
                                           ;	.line	94; "PB.c"	if((pb_info[current_button].samples[0] == PB_PRESSED_VOLTAGE) &&
000142   1283     bcf     0x03, 0x5        	BANKSEL	r0x1014
000143   1303     bcf     0x03, 0x6        
000144   0859     movf    0x59, 0x0        	MOVF	r0x1014,W
000145   1283     bcf     0x03, 0x5        	BANKSEL	FSR
000146   1303     bcf     0x03, 0x6        
000147   0084     movwf   0x04             	MOVWF	FSR
000148   1383     bcf     0x03, 0x7        	BCF	STATUS,7
000149   1283     bcf     0x03, 0x5        	BANKSEL	r0x1015
00014a   1303     bcf     0x03, 0x6        
00014b   185a     btfsc   0x5a, 0x0        	BTFSC	r0x1015,0
00014c   1783     bsf     0x03, 0x7        	BSF	STATUS,7
00014d   1283     bcf     0x03, 0x5        	BANKSEL	INDF
00014e   1303     bcf     0x03, 0x6        
00014f   0800     movf    0x00, 0x0        	MOVF	INDF,W
000150   1283     bcf     0x03, 0x5        	BANKSEL	r0x1018
000151   1303     bcf     0x03, 0x6        
000152   00dd     movwf   0x5d             	MOVWF	r0x1018
000153   085d     movf    0x5d, 0x0        	MOVF	r0x1018,W
000154   1d03     btfss   0x03, 0x2        	BTFSS	STATUS,2
000155   2a05     goto    0x0205           	GOTO	_00158_DS_
                                           ;	.line	95; "PB.c"	(pb_info[current_button].samples[1] == PB_PRESSED_VOLTAGE))
000156   3001     movlw   0x01             	MOVLW	0x01
000157   0759     addwf   0x59, 0x0        	ADDWF	r0x1014,W
000158   00dd     movwf   0x5d             	MOVWF	r0x1018
000159   01de     clrf    0x5e             	CLRF	r0x1019
00015a   0dde     rlf     0x5e, 0x1        	RLF	r0x1019,F
00015b   085a     movf    0x5a, 0x0        	MOVF	r0x1015,W
00015c   07de     addwf   0x5e, 0x1        	ADDWF	r0x1019,F
00015d   085d     movf    0x5d, 0x0        	MOVF	r0x1018,W
00015e   1283     bcf     0x03, 0x5        	BANKSEL	FSR
00015f   1303     bcf     0x03, 0x6        
000160   0084     movwf   0x04             	MOVWF	FSR
000161   1383     bcf     0x03, 0x7        	BCF	STATUS,7
000162   1283     bcf     0x03, 0x5        	BANKSEL	r0x1019
000163   1303     bcf     0x03, 0x6        
000164   185e     btfsc   0x5e, 0x0        	BTFSC	r0x1019,0
000165   1783     bsf     0x03, 0x7        	BSF	STATUS,7
000166   1283     bcf     0x03, 0x5        	BANKSEL	INDF
000167   1303     bcf     0x03, 0x6        
000168   0800     movf    0x00, 0x0        	MOVF	INDF,W
000169   1283     bcf     0x03, 0x5        	BANKSEL	r0x101A
00016a   1303     bcf     0x03, 0x6        
00016b   00df     movwf   0x5f             	MOVWF	r0x101A
00016c   085f     movf    0x5f, 0x0        	MOVF	r0x101A,W
00016d   1d03     btfss   0x03, 0x2        	BTFSS	STATUS,2
00016e   2a05     goto    0x0205           	GOTO	_00158_DS_
                                           ;	.line	97; "PB.c"	pb_info[current_button].state = PB_PRE_PRESSED;
00016f   085b     movf    0x5b, 0x0        	MOVF	r0x1016,W
000170   1283     bcf     0x03, 0x5        	BANKSEL	FSR
000171   1303     bcf     0x03, 0x6        
000172   0084     movwf   0x04             	MOVWF	FSR
000173   1383     bcf     0x03, 0x7        	BCF	STATUS,7
000174   1283     bcf     0x03, 0x5        	BANKSEL	r0x1017
000175   1303     bcf     0x03, 0x6        
000176   185c     btfsc   0x5c, 0x0        	BTFSC	r0x1017,0
000177   1783     bsf     0x03, 0x7        	BSF	STATUS,7
000178   3001     movlw   0x01             	MOVLW	0x01
000179   1283     bcf     0x03, 0x5        	BANKSEL	INDF
00017a   1303     bcf     0x03, 0x6        
00017b   0080     movwf   0x00             	MOVWF	INDF
                                           ;	.line	99; "PB.c"	break;
00017c   2a05     goto    0x0205           	GOTO	_00158_DS_
                                           _00144_DS_:
                                           ;	.line	101; "PB.c"	if(pb_info[current_button].samples[1] == PB_PRESSED_VOLTAGE)
00017d   3001     movlw   0x01             	MOVLW	0x01
00017e   1283     bcf     0x03, 0x5        	BANKSEL	r0x1014
00017f   1303     bcf     0x03, 0x6        
000180   0759     addwf   0x59, 0x0        	ADDWF	r0x1014,W
000181   00dd     movwf   0x5d             	MOVWF	r0x1018
000182   01de     clrf    0x5e             	CLRF	r0x1019
000183   0dde     rlf     0x5e, 0x1        	RLF	r0x1019,F
000184   085a     movf    0x5a, 0x0        	MOVF	r0x1015,W
000185   07de     addwf   0x5e, 0x1        	ADDWF	r0x1019,F
000186   085d     movf    0x5d, 0x0        	MOVF	r0x1018,W
000187   1283     bcf     0x03, 0x5        	BANKSEL	FSR
000188   1303     bcf     0x03, 0x6        
000189   0084     movwf   0x04             	MOVWF	FSR
00018a   1383     bcf     0x03, 0x7        	BCF	STATUS,7
00018b   1283     bcf     0x03, 0x5        	BANKSEL	r0x1019
00018c   1303     bcf     0x03, 0x6        
00018d   185e     btfsc   0x5e, 0x0        	BTFSC	r0x1019,0
00018e   1783     bsf     0x03, 0x7        	BSF	STATUS,7
00018f   1283     bcf     0x03, 0x5        	BANKSEL	INDF
000190   1303     bcf     0x03, 0x6        
000191   0800     movf    0x00, 0x0        	MOVF	INDF,W
000192   1283     bcf     0x03, 0x5        	BANKSEL	r0x101A
000193   1303     bcf     0x03, 0x6        
000194   00df     movwf   0x5f             	MOVWF	r0x101A
000195   085f     movf    0x5f, 0x0        	MOVF	r0x101A,W
000196   1d03     btfss   0x03, 0x2        	BTFSS	STATUS,2
000197   2a05     goto    0x0205           	GOTO	_00158_DS_
                                           ;	.line	103; "PB.c"	pb_info[current_button].state = PB_PRESSED;
000198   085b     movf    0x5b, 0x0        	MOVF	r0x1016,W
000199   1283     bcf     0x03, 0x5        	BANKSEL	FSR
00019a   1303     bcf     0x03, 0x6        
00019b   0084     movwf   0x04             	MOVWF	FSR
00019c   1383     bcf     0x03, 0x7        	BCF	STATUS,7
00019d   1283     bcf     0x03, 0x5        	BANKSEL	r0x1017
00019e   1303     bcf     0x03, 0x6        
00019f   185c     btfsc   0x5c, 0x0        	BTFSC	r0x1017,0
0001a0   1783     bsf     0x03, 0x7        	BSF	STATUS,7
0001a1   3002     movlw   0x02             	MOVLW	0x02
0001a2   1283     bcf     0x03, 0x5        	BANKSEL	INDF
0001a3   1303     bcf     0x03, 0x6        
0001a4   0080     movwf   0x00             	MOVWF	INDF
                                           ;	.line	105; "PB.c"	break;
0001a5   2a05     goto    0x0205           	GOTO	_00158_DS_
                                           _00147_DS_:
                                           ;	.line	107; "PB.c"	if((pb_info[current_button].samples[0] == PB_RELEASED_VOLTAGE) &&
0001a6   1283     bcf     0x03, 0x5        	BANKSEL	r0x1014
0001a7   1303     bcf     0x03, 0x6        
0001a8   0859     movf    0x59, 0x0        	MOVF	r0x1014,W
0001a9   1283     bcf     0x03, 0x5        	BANKSEL	FSR
0001aa   1303     bcf     0x03, 0x6        
0001ab   0084     movwf   0x04             	MOVWF	FSR
0001ac   1383     bcf     0x03, 0x7        	BCF	STATUS,7
0001ad   1283     bcf     0x03, 0x5        	BANKSEL	r0x1015
0001ae   1303     bcf     0x03, 0x6        
0001af   185a     btfsc   0x5a, 0x0        	BTFSC	r0x1015,0
0001b0   1783     bsf     0x03, 0x7        	BSF	STATUS,7
0001b1   1283     bcf     0x03, 0x5        	BANKSEL	INDF
0001b2   1303     bcf     0x03, 0x6        
0001b3   0800     movf    0x00, 0x0        	MOVF	INDF,W
0001b4   1283     bcf     0x03, 0x5        	BANKSEL	r0x1018
0001b5   1303     bcf     0x03, 0x6        
0001b6   00dd     movwf   0x5d             	MOVWF	r0x1018
0001b7   3a01     xorlw   0x01             	XORLW	0x01
0001b8   1d03     btfss   0x03, 0x2        	BTFSS	STATUS,2
0001b9   2a05     goto    0x0205           	GOTO	_00158_DS_
                                           ;	.line	108; "PB.c"	(pb_info[current_button].samples[1] == PB_RELEASED_VOLTAGE))
0001ba   3001     movlw   0x01             	MOVLW	0x01
0001bb   0759     addwf   0x59, 0x0        	ADDWF	r0x1014,W
0001bc   00dd     movwf   0x5d             	MOVWF	r0x1018
0001bd   01de     clrf    0x5e             	CLRF	r0x1019
0001be   0dde     rlf     0x5e, 0x1        	RLF	r0x1019,F
0001bf   085a     movf    0x5a, 0x0        	MOVF	r0x1015,W
0001c0   07de     addwf   0x5e, 0x1        	ADDWF	r0x1019,F
0001c1   085d     movf    0x5d, 0x0        	MOVF	r0x1018,W
0001c2   1283     bcf     0x03, 0x5        	BANKSEL	FSR
0001c3   1303     bcf     0x03, 0x6        
0001c4   0084     movwf   0x04             	MOVWF	FSR
0001c5   1383     bcf     0x03, 0x7        	BCF	STATUS,7
0001c6   1283     bcf     0x03, 0x5        	BANKSEL	r0x1019
0001c7   1303     bcf     0x03, 0x6        
0001c8   185e     btfsc   0x5e, 0x0        	BTFSC	r0x1019,0
0001c9   1783     bsf     0x03, 0x7        	BSF	STATUS,7
0001ca   1283     bcf     0x03, 0x5        	BANKSEL	INDF
0001cb   1303     bcf     0x03, 0x6        
0001cc   0800     movf    0x00, 0x0        	MOVF	INDF,W
0001cd   1283     bcf     0x03, 0x5        	BANKSEL	r0x101A
0001ce   1303     bcf     0x03, 0x6        
0001cf   00df     movwf   0x5f             	MOVWF	r0x101A
0001d0   3a01     xorlw   0x01             	XORLW	0x01
0001d1   1d03     btfss   0x03, 0x2        	BTFSS	STATUS,2
0001d2   2a05     goto    0x0205           	GOTO	_00158_DS_
                                           ;	.line	110; "PB.c"	pb_info[current_button].state = PB_PRE_RELEASED;
0001d3   085b     movf    0x5b, 0x0        	MOVF	r0x1016,W
0001d4   1283     bcf     0x03, 0x5        	BANKSEL	FSR
0001d5   1303     bcf     0x03, 0x6        
0001d6   0084     movwf   0x04             	MOVWF	FSR
0001d7   1383     bcf     0x03, 0x7        	BCF	STATUS,7
0001d8   1283     bcf     0x03, 0x5        	BANKSEL	r0x1017
0001d9   1303     bcf     0x03, 0x6        
0001da   185c     btfsc   0x5c, 0x0        	BTFSC	r0x1017,0
0001db   1783     bsf     0x03, 0x7        	BSF	STATUS,7
0001dc   3003     movlw   0x03             	MOVLW	0x03
0001dd   1283     bcf     0x03, 0x5        	BANKSEL	INDF
0001de   1303     bcf     0x03, 0x6        
0001df   0080     movwf   0x00             	MOVWF	INDF
                                           ;	.line	112; "PB.c"	break;
0001e0   2a05     goto    0x0205           	GOTO	_00158_DS_
                                           _00151_DS_:
                                           ;	.line	114; "PB.c"	if(pb_info[current_button].samples[1] == PB_RELEASED_VOLTAGE)
0001e1   1283     bcf     0x03, 0x5        	BANKSEL	r0x1014
0001e2   1303     bcf     0x03, 0x6        
0001e3   0ad9     incf    0x59, 0x1        	INCF	r0x1014,F
0001e4   1903     btfsc   0x03, 0x2        	BTFSC	STATUS,2
0001e5   0ada     incf    0x5a, 0x1        	INCF	r0x1015,F
0001e6   0859     movf    0x59, 0x0        	MOVF	r0x1014,W
0001e7   1283     bcf     0x03, 0x5        	BANKSEL	FSR
0001e8   1303     bcf     0x03, 0x6        
0001e9   0084     movwf   0x04             	MOVWF	FSR
0001ea   1383     bcf     0x03, 0x7        	BCF	STATUS,7
0001eb   1283     bcf     0x03, 0x5        	BANKSEL	r0x1015
0001ec   1303     bcf     0x03, 0x6        
0001ed   185a     btfsc   0x5a, 0x0        	BTFSC	r0x1015,0
0001ee   1783     bsf     0x03, 0x7        	BSF	STATUS,7
0001ef   1283     bcf     0x03, 0x5        	BANKSEL	INDF
0001f0   1303     bcf     0x03, 0x6        
0001f1   0800     movf    0x00, 0x0        	MOVF	INDF,W
0001f2   1283     bcf     0x03, 0x5        	BANKSEL	r0x1018
0001f3   1303     bcf     0x03, 0x6        
0001f4   00dd     movwf   0x5d             	MOVWF	r0x1018
0001f5   3a01     xorlw   0x01             	XORLW	0x01
0001f6   1d03     btfss   0x03, 0x2        	BTFSS	STATUS,2
0001f7   2a05     goto    0x0205           	GOTO	_00158_DS_
                                           ;	.line	116; "PB.c"	pb_info[current_button].state = PB_RELEASED;
0001f8   085b     movf    0x5b, 0x0        	MOVF	r0x1016,W
0001f9   1283     bcf     0x03, 0x5        	BANKSEL	FSR
0001fa   1303     bcf     0x03, 0x6        
0001fb   0084     movwf   0x04             	MOVWF	FSR
0001fc   1383     bcf     0x03, 0x7        	BCF	STATUS,7
0001fd   1283     bcf     0x03, 0x5        	BANKSEL	r0x1017
0001fe   1303     bcf     0x03, 0x6        
0001ff   185c     btfsc   0x5c, 0x0        	BTFSC	r0x1017,0
000200   1783     bsf     0x03, 0x7        	BSF	STATUS,7
000201   3000     movlw   0x00             	MOVLW	0x00
000202   1283     bcf     0x03, 0x5        	BANKSEL	INDF
000203   1303     bcf     0x03, 0x6        
000204   0080     movwf   0x00             	MOVWF	INDF
                                           _00158_DS_:
                                           ;	.line	66; "PB.c"	for (current_button = PB_PLUS; current_button < PB_UNUSED_2 ; current_button++)
000205   3003     movlw   0x03             	MOVLW	0x03
000206   1283     bcf     0x03, 0x5        	BANKSEL	r0x1010
000207   1303     bcf     0x03, 0x6        
000208   07d5     addwf   0x55, 0x1        	ADDWF	r0x1010,F
000209   1803     btfsc   0x03, 0x0        	BTFSC	STATUS,0
00020a   0ad6     incf    0x56, 0x1        	INCF	r0x1011,F
00020b   3003     movlw   0x03             	MOVLW	0x03
00020c   07d7     addwf   0x57, 0x1        	ADDWF	r0x1012,F
00020d   1803     btfsc   0x03, 0x0        	BTFSC	STATUS,0
00020e   0ad8     incf    0x58, 0x1        	INCF	r0x1013,F
00020f   0ad4     incf    0x54, 0x1        	INCF	r0x100F,F
                                           ;;unsigned compare: left < lit(0x3=3), size=1
000210   3003     movlw   0x03             	MOVLW	0x03
000211   0254     subwf   0x54, 0x0        	SUBWF	r0x100F,W
000212   1c03     btfss   0x03, 0x0        	BTFSS	STATUS,0
000213   285d     goto    0x005d           	GOTO	_00157_DS_
                                           ;;genSkipc:3307: created from rifx:00000000047A57B0
                                           ;	.line	127; "PB.c"	}
000214   0008     return                   	RETURN	
                                           ; exit point of _PB_Update

                                           ;***
                                           ;  pBlock Stats: dbName = C
                                           ;***
                                           ;has an exit
                                           ;functions called:
                                           ;   _GPIO_InitPortPin
                                           ;   _GPIO_InitPortPin
                                           ;   _GPIO_InitPortPin
                                           ;   _GPIO_InitPortPin
                                           ;   __muluchar
                                           ;   _GPIO_InitPortPin
                                           ;   _GPIO_InitPortPin
                                           ;   _GPIO_InitPortPin
                                           ;   _GPIO_InitPortPin
                                           ;   __muluchar
                                           ;7 compiler assigned registers:
                                           ;   r0x101B
                                           ;   STK00
                                           ;   r0x101C
                                           ;   STK01
                                           ;   r0x101D
                                           ;   r0x101E
                                           ;   r0x101F
                                           ;; Starting pCode block
                                           S_PB__PB_Init	code
                                           _PB_Init:
                                           ; 2 exit points
                                           ;	.line	22; "PB.c"	void PB_Init(tPB pb, tPB_State initial_state)
00090c   1283     bcf     0x03, 0x5        	BANKSEL	r0x101B
00090d   1303     bcf     0x03, 0x6        
00090e   00cf     movwf   0x4f             	MOVWF	r0x101B
00090f   087f     movf    0x7f, 0x0        	MOVF	STK00,W
000910   00d0     movwf   0x50             	MOVWF	r0x101C
                                           ;;swapping arguments (AOP_TYPEs 1/2)
                                           ;;unsigned compare: left >= lit(0x4=4), size=1
                                           ;	.line	25; "PB.c"	switch(pb)
000911   3004     movlw   0x04             	MOVLW	0x04
000912   024f     subwf   0x4f, 0x0        	SUBWF	r0x101B,W
000913   1803     btfsc   0x03, 0x0        	BTFSC	STATUS,0
000914   2952     goto    0x0152           	GOTO	_00110_DS_
                                           ;;genSkipc:3307: created from rifx:00000000047A57B0
000915   3009     movlw   0x09             	MOVLW	HIGH(_00127_DS_)
000916   1283     bcf     0x03, 0x5        	BANKSEL	PCLATH
000917   1303     bcf     0x03, 0x6        
000918   008a     movwf   0x0a             	MOVWF	PCLATH
000919   3023     movlw   0x23             	MOVLW	_00127_DS_
00091a   1283     bcf     0x03, 0x5        	BANKSEL	r0x101B
00091b   1303     bcf     0x03, 0x6        
00091c   074f     addwf   0x4f, 0x0        	ADDWF	r0x101B,W
00091d   1c03     btfss   0x03, 0x0        	BTFSS	STATUS,0
00091e   2922     goto    0x0122           	GOTO	_00003_DS_
00091f   1283     bcf     0x03, 0x5        	BANKSEL	PCLATH
000920   1303     bcf     0x03, 0x6        
000921   0a8a     incf    0x0a, 0x1        	INCF	PCLATH,F
                                           _00003_DS_:
000922   0082     movwf   0x02             	MOVWF	PCL
                                           _00127_DS_:
000923   2927     goto    0x0127           	GOTO	_00105_DS_
000924   2932     goto    0x0132           	GOTO	_00106_DS_
000925   293d     goto    0x013d           	GOTO	_00107_DS_
000926   2948     goto    0x0148           	GOTO	_00108_DS_
                                           _00105_DS_:
                                           ;	.line	28; "PB.c"	GPIO_InitPortPin(PB_PLUS_PORT, PB_PLUS_PIN, GPIO_IN);
000927   3001     movlw   0x01             	MOVLW	0x01
000928   00fe     movwf   0x7e             	MOVWF	STK01
000929   3000     movlw   0x00             	MOVLW	0x00
00092a   00ff     movwf   0x7f             	MOVWF	STK00
00092b   3001     movlw   0x01             	MOVLW	0x01
00092c   118a     bcf     0x0a, 0x3        	PAGESEL	_GPIO_InitPortPin
00092d   120a     bcf     0x0a, 0x4        
00092e   235a     call    0x035a           	CALL	_GPIO_InitPortPin
00092f   158a     bsf     0x0a, 0x3        	PAGESEL	$
000930   120a     bcf     0x0a, 0x4        
                                           ;	.line	29; "PB.c"	break;
000931   2952     goto    0x0152           	GOTO	_00110_DS_
                                           _00106_DS_:
                                           ;	.line	31; "PB.c"	GPIO_InitPortPin(PB_MINUS_PORT, PB_MINUS_PIN, GPIO_IN);
000932   3001     movlw   0x01             	MOVLW	0x01
000933   00fe     movwf   0x7e             	MOVWF	STK01
000934   3001     movlw   0x01             	MOVLW	0x01
000935   00ff     movwf   0x7f             	MOVWF	STK00
000936   3001     movlw   0x01             	MOVLW	0x01
000937   118a     bcf     0x0a, 0x3        	PAGESEL	_GPIO_InitPortPin
000938   120a     bcf     0x0a, 0x4        
000939   235a     call    0x035a           	CALL	_GPIO_InitPortPin
00093a   158a     bsf     0x0a, 0x3        	PAGESEL	$
00093b   120a     bcf     0x0a, 0x4        
                                           ;	.line	32; "PB.c"	break;
00093c   2952     goto    0x0152           	GOTO	_00110_DS_
                                           _00107_DS_:
                                           ;	.line	34; "PB.c"	GPIO_InitPortPin(PB_SET_PORT, PB_SET_PIN, GPIO_IN);
00093d   3001     movlw   0x01             	MOVLW	0x01
00093e   00fe     movwf   0x7e             	MOVWF	STK01
00093f   3002     movlw   0x02             	MOVLW	0x02
000940   00ff     movwf   0x7f             	MOVWF	STK00
000941   3001     movlw   0x01             	MOVLW	0x01
000942   118a     bcf     0x0a, 0x3        	PAGESEL	_GPIO_InitPortPin
000943   120a     bcf     0x0a, 0x4        
000944   235a     call    0x035a           	CALL	_GPIO_InitPortPin
000945   158a     bsf     0x0a, 0x3        	PAGESEL	$
000946   120a     bcf     0x0a, 0x4        
                                           ;	.line	35; "PB.c"	break;
000947   2952     goto    0x0152           	GOTO	_00110_DS_
                                           _00108_DS_:
                                           ;	.line	37; "PB.c"	GPIO_InitPortPin(PORT_B, 3, GPIO_IN);
000948   3001     movlw   0x01             	MOVLW	0x01
000949   00fe     movwf   0x7e             	MOVWF	STK01
00094a   3003     movlw   0x03             	MOVLW	0x03
00094b   00ff     movwf   0x7f             	MOVWF	STK00
00094c   3001     movlw   0x01             	MOVLW	0x01
00094d   118a     bcf     0x0a, 0x3        	PAGESEL	_GPIO_InitPortPin
00094e   120a     bcf     0x0a, 0x4        
00094f   235a     call    0x035a           	CALL	_GPIO_InitPortPin
000950   158a     bsf     0x0a, 0x3        	PAGESEL	$
000951   120a     bcf     0x0a, 0x4        
                                           _00110_DS_:
                                           ;	.line	45; "PB.c"	pb_info[pb].state = initial_state;
000952   3003     movlw   0x03             	MOVLW	0x03
000953   00ff     movwf   0x7f             	MOVWF	STK00
000954   1283     bcf     0x03, 0x5        	BANKSEL	r0x101B
000955   1303     bcf     0x03, 0x6        
000956   084f     movf    0x4f, 0x0        	MOVF	r0x101B,W
000957   158a     bsf     0x0a, 0x3        	PAGESEL	__muluchar
000958   120a     bcf     0x0a, 0x4        
000959   26da     call    0x06da           	CALL	__muluchar
00095a   158a     bsf     0x0a, 0x3        	PAGESEL	$
00095b   120a     bcf     0x0a, 0x4        
00095c   1283     bcf     0x03, 0x5        	BANKSEL	r0x101D
00095d   1303     bcf     0x03, 0x6        
00095e   00d1     movwf   0x51             	MOVWF	r0x101D
00095f   087f     movf    0x7f, 0x0        	MOVF	STK00,W
000960   00cf     movwf   0x4f             	MOVWF	r0x101B
000961   3e62     addlw   0x62             	ADDLW	(_pb_info + 0)
000962   00cf     movwf   0x4f             	MOVWF	r0x101B
000963   0851     movf    0x51, 0x0        	MOVF	r0x101D,W
000964   1803     btfsc   0x03, 0x0        	BTFSC	STATUS,0
000965   0f51     incfsz  0x51, 0x0        	INCFSZ	r0x101D,W
000966   3e00     addlw   0x00             	ADDLW	high (_pb_info + 0)
000967   00d1     movwf   0x51             	MOVWF	r0x101D
000968   3002     movlw   0x02             	MOVLW	0x02
000969   074f     addwf   0x4f, 0x0        	ADDWF	r0x101B,W
00096a   00d2     movwf   0x52             	MOVWF	r0x101E
00096b   01d3     clrf    0x53             	CLRF	r0x101F
00096c   0dd3     rlf     0x53, 0x1        	RLF	r0x101F,F
00096d   0851     movf    0x51, 0x0        	MOVF	r0x101D,W
00096e   07d3     addwf   0x53, 0x1        	ADDWF	r0x101F,F
00096f   0852     movf    0x52, 0x0        	MOVF	r0x101E,W
000970   1283     bcf     0x03, 0x5        	BANKSEL	FSR
000971   1303     bcf     0x03, 0x6        
000972   0084     movwf   0x04             	MOVWF	FSR
000973   1383     bcf     0x03, 0x7        	BCF	STATUS,7
000974   1283     bcf     0x03, 0x5        	BANKSEL	r0x101F
000975   1303     bcf     0x03, 0x6        
000976   1853     btfsc   0x53, 0x0        	BTFSC	r0x101F,0
000977   1783     bsf     0x03, 0x7        	BSF	STATUS,7
000978   0850     movf    0x50, 0x0        	MOVF	r0x101C,W
000979   1283     bcf     0x03, 0x5        	BANKSEL	INDF
00097a   1303     bcf     0x03, 0x6        
00097b   0080     movwf   0x00             	MOVWF	INDF
                                           ;;swapping arguments (AOP_TYPEs 1/2)
                                           ;;unsigned compare: left >= lit(0x4=4), size=1
                                           ;	.line	48; "PB.c"	switch (initial_state)
00097c   3004     movlw   0x04             	MOVLW	0x04
00097d   1283     bcf     0x03, 0x5        	BANKSEL	r0x101C
00097e   1303     bcf     0x03, 0x6        
00097f   0250     subwf   0x50, 0x0        	SUBWF	r0x101C,W
000980   1803     btfsc   0x03, 0x0        	BTFSC	STATUS,0
000981   29db     goto    0x01db           	GOTO	_00116_DS_
                                           ;;genSkipc:3307: created from rifx:00000000047A57B0
000982   3009     movlw   0x09             	MOVLW	HIGH(_00129_DS_)
000983   1283     bcf     0x03, 0x5        	BANKSEL	PCLATH
000984   1303     bcf     0x03, 0x6        
000985   008a     movwf   0x0a             	MOVWF	PCLATH
000986   3090     movlw   0x90             	MOVLW	_00129_DS_
000987   1283     bcf     0x03, 0x5        	BANKSEL	r0x101C
000988   1303     bcf     0x03, 0x6        
000989   0750     addwf   0x50, 0x0        	ADDWF	r0x101C,W
00098a   1c03     btfss   0x03, 0x0        	BTFSS	STATUS,0
00098b   298f     goto    0x018f           	GOTO	_00004_DS_
00098c   1283     bcf     0x03, 0x5        	BANKSEL	PCLATH
00098d   1303     bcf     0x03, 0x6        
00098e   0a8a     incf    0x0a, 0x1        	INCF	PCLATH,F
                                           _00004_DS_:
00098f   0082     movwf   0x02             	MOVWF	PCL
                                           _00129_DS_:
000990   2994     goto    0x0194           	GOTO	_00112_DS_
000991   29ba     goto    0x01ba           	GOTO	_00114_DS_
000992   29ba     goto    0x01ba           	GOTO	_00114_DS_
000993   2994     goto    0x0194           	GOTO	_00112_DS_
                                           _00112_DS_:
                                           ;	.line	52; "PB.c"	pb_info[pb].samples[0] = PB_RELEASED_VOLTAGE;
000994   1283     bcf     0x03, 0x5        	BANKSEL	r0x101B
000995   1303     bcf     0x03, 0x6        
000996   084f     movf    0x4f, 0x0        	MOVF	r0x101B,W
000997   1283     bcf     0x03, 0x5        	BANKSEL	FSR
000998   1303     bcf     0x03, 0x6        
000999   0084     movwf   0x04             	MOVWF	FSR
00099a   1383     bcf     0x03, 0x7        	BCF	STATUS,7
00099b   1283     bcf     0x03, 0x5        	BANKSEL	r0x101D
00099c   1303     bcf     0x03, 0x6        
00099d   1851     btfsc   0x51, 0x0        	BTFSC	r0x101D,0
00099e   1783     bsf     0x03, 0x7        	BSF	STATUS,7
00099f   3001     movlw   0x01             	MOVLW	0x01
0009a0   1283     bcf     0x03, 0x5        	BANKSEL	INDF
0009a1   1303     bcf     0x03, 0x6        
0009a2   0080     movwf   0x00             	MOVWF	INDF
                                           ;	.line	53; "PB.c"	pb_info[pb].samples[1] = PB_RELEASED_VOLTAGE;
0009a3   3001     movlw   0x01             	MOVLW	0x01
0009a4   1283     bcf     0x03, 0x5        	BANKSEL	r0x101B
0009a5   1303     bcf     0x03, 0x6        
0009a6   074f     addwf   0x4f, 0x0        	ADDWF	r0x101B,W
0009a7   00d0     movwf   0x50             	MOVWF	r0x101C
0009a8   01d2     clrf    0x52             	CLRF	r0x101E
0009a9   0dd2     rlf     0x52, 0x1        	RLF	r0x101E,F
0009aa   0851     movf    0x51, 0x0        	MOVF	r0x101D,W
0009ab   07d2     addwf   0x52, 0x1        	ADDWF	r0x101E,F
0009ac   0850     movf    0x50, 0x0        	MOVF	r0x101C,W
0009ad   1283     bcf     0x03, 0x5        	BANKSEL	FSR
0009ae   1303     bcf     0x03, 0x6        
0009af   0084     movwf   0x04             	MOVWF	FSR
0009b0   1383     bcf     0x03, 0x7        	BCF	STATUS,7
0009b1   1283     bcf     0x03, 0x5        	BANKSEL	r0x101E
0009b2   1303     bcf     0x03, 0x6        
0009b3   1852     btfsc   0x52, 0x0        	BTFSC	r0x101E,0
0009b4   1783     bsf     0x03, 0x7        	BSF	STATUS,7
0009b5   3001     movlw   0x01             	MOVLW	0x01
0009b6   1283     bcf     0x03, 0x5        	BANKSEL	INDF
0009b7   1303     bcf     0x03, 0x6        
0009b8   0080     movwf   0x00             	MOVWF	INDF
                                           ;	.line	54; "PB.c"	break;
0009b9   29db     goto    0x01db           	GOTO	_00116_DS_
                                           _00114_DS_:
                                           ;	.line	57; "PB.c"	pb_info[pb].samples[0] = PB_PRESSED_VOLTAGE;
0009ba   1283     bcf     0x03, 0x5        	BANKSEL	r0x101B
0009bb   1303     bcf     0x03, 0x6        
0009bc   084f     movf    0x4f, 0x0        	MOVF	r0x101B,W
0009bd   1283     bcf     0x03, 0x5        	BANKSEL	FSR
0009be   1303     bcf     0x03, 0x6        
0009bf   0084     movwf   0x04             	MOVWF	FSR
0009c0   1383     bcf     0x03, 0x7        	BCF	STATUS,7
0009c1   1283     bcf     0x03, 0x5        	BANKSEL	r0x101D
0009c2   1303     bcf     0x03, 0x6        
0009c3   1851     btfsc   0x51, 0x0        	BTFSC	r0x101D,0
0009c4   1783     bsf     0x03, 0x7        	BSF	STATUS,7
0009c5   3000     movlw   0x00             	MOVLW	0x00
0009c6   1283     bcf     0x03, 0x5        	BANKSEL	INDF
0009c7   1303     bcf     0x03, 0x6        
0009c8   0080     movwf   0x00             	MOVWF	INDF
                                           ;	.line	58; "PB.c"	pb_info[pb].samples[1] = PB_PRESSED_VOLTAGE;
0009c9   1283     bcf     0x03, 0x5        	BANKSEL	r0x101B
0009ca   1303     bcf     0x03, 0x6        
0009cb   0acf     incf    0x4f, 0x1        	INCF	r0x101B,F
0009cc   1903     btfsc   0x03, 0x2        	BTFSC	STATUS,2
0009cd   0ad1     incf    0x51, 0x1        	INCF	r0x101D,F
0009ce   084f     movf    0x4f, 0x0        	MOVF	r0x101B,W
0009cf   1283     bcf     0x03, 0x5        	BANKSEL	FSR
0009d0   1303     bcf     0x03, 0x6        
0009d1   0084     movwf   0x04             	MOVWF	FSR
0009d2   1383     bcf     0x03, 0x7        	BCF	STATUS,7
0009d3   1283     bcf     0x03, 0x5        	BANKSEL	r0x101D
0009d4   1303     bcf     0x03, 0x6        
0009d5   1851     btfsc   0x51, 0x0        	BTFSC	r0x101D,0
0009d6   1783     bsf     0x03, 0x7        	BSF	STATUS,7
0009d7   3000     movlw   0x00             	MOVLW	0x00
0009d8   1283     bcf     0x03, 0x5        	BANKSEL	INDF
0009d9   1303     bcf     0x03, 0x6        
0009da   0080     movwf   0x00             	MOVWF	INDF
                                           _00116_DS_:
                                           ;	.line	61; "PB.c"	}
0009db   0008     return                   	RETURN	
                                           ; exit point of _PB_Init


                                           ;	code size estimation:
                                           ;	  431+  132 =   563 instructions ( 1390 byte)

                                           	end
                                           ;--------------------------------------------------------
                                           ; File Created by SDCC : free open source ANSI-C Compiler
                                           ; Version 4.0.0 #11528 (MINGW64)
                                           ;--------------------------------------------------------
                                           ; PIC port for the 14-bit core
                                           ;--------------------------------------------------------
                                           ;	.file	"SSD.c"
                                           	list	p=16f877a
                                           	radix dec
                                           	include "p16f877a.inc"
                                                   LIST

                                           ;==========================================================================
                                           ; Build date : Oct 21 2015
                                           ;  MPASM PIC16F877A processor include
                                           ; 
                                           ;  (c) Copyright 1999-2015 Microchip Technology, All rights reserved
                                           ;==========================================================================

                                                   NOLIST
                                           ;--------------------------------------------------------
                                           ; external declarations
                                           ;--------------------------------------------------------
                                           	extern	_GPIO_GetPortPinState
                                           	extern	_GPIO_SetPortState
                                           	extern	_GPIO_SetPortPinState
                                           	extern	_GPIO_InitPort
                                           	extern	_GPIO_InitPortPin

                                           	extern PSAVE
                                           	extern SSAVE
                                           	extern WSAVE
                                           	extern STK12
                                           	extern STK11
                                           	extern STK10
                                           	extern STK09
                                           	extern STK08
                                           	extern STK07
                                           	extern STK06
                                           	extern STK05
                                           	extern STK04
                                           	extern STK03
                                           	extern STK02
                                           	extern STK01
                                           	extern STK00
                                           ;--------------------------------------------------------
                                           ; global declarations
                                           ;--------------------------------------------------------
                                           	global	_ssd_symbols
                                           	global	_SSD_Init
                                           	global	_SSD_Update
                                           	global	_SSD_Update_2
                                           	global	_SSD_SetSymbol
                                           	global	_SSD_SetState
                                           	global	_SSD_GetSymbol
                                           	global	_SSD_GetState

                                           ;--------------------------------------------------------
                                           ; global definitions
                                           ;--------------------------------------------------------
                                           ;--------------------------------------------------------
                                           ; absolute symbol definitions
                                           ;--------------------------------------------------------
                                           ;--------------------------------------------------------
                                           ; compiler-defined variables
                                           ;--------------------------------------------------------
                                           UDL_SSD_0	udata
                                           r0x1024	res	1
                                           r0x1025	res	1
                                           r0x1026	res	1
                                           r0x1027	res	1
                                           r0x1028	res	1
                                           r0x1021	res	1
                                           r0x1022	res	1
                                           r0x1023	res	1
                                           r0x101D	res	1
                                           r0x101E	res	1
                                           r0x101F	res	1
                                           r0x1020	res	1
                                           r0x101A	res	1
                                           r0x101B	res	1
                                           r0x101C	res	1
                                           r0x1018	res	1
                                           r0x1019	res	1
                                           r0x1015	res	1
                                           r0x1016	res	1
                                           r0x1013	res	1
                                           r0x1014	res	1
                                           ;--------------------------------------------------------
                                           ; initialized data
                                           ;--------------------------------------------------------

                                           IDD_SSD_0	idata
                                           _toggle_dot_time
                                           	db	0x00	; 0


                                           IDD_SSD_1	idata
                                           _dot_state
                                           	db	0x00	; 0


                                           IDD_SSD_2	idata
                                           _ssd_symbols
                                           	db	0x0a	; 10
                                           	db	0x00, 0x00, 0x00


                                           IDD_SSD_3	idata
                                           _ssd_data
                                           	db	0x3f	; 63
                                           	db	0x06	; 6
                                           	db	0x5b	; 91
                                           	db	0x4f	; 79	'O'
                                           	db	0x66	; 102	'f'
                                           	db	0x6d	; 109	'm'
                                           	db	0x7d	; 125
                                           	db	0x07	; 7
                                           	db	0x7f	; 127
                                           	db	0x6f	; 111	'o'
                                           	db	0x00	; 0


                                           IDD_SSD_4	idata
                                           _SSD_Update_current_ssd_65536_22
                                           	db	0x00	; 0


                                           IDD_SSD_5	idata
                                           _SSD_Update_2_current_ssd_65536_26
                                           	db	0x00	; 0

                                           ;--------------------------------------------------------
                                           ; initialized absolute data
                                           ;--------------------------------------------------------
                                           ;--------------------------------------------------------
                                           ; overlayable items in internal ram 
                                           ;--------------------------------------------------------
                                           ;	udata_ovr
                                           ;--------------------------------------------------------
                                           ; code
                                           ;--------------------------------------------------------
                                           code_SSD	code
                                           ;***
                                           ;  pBlock Stats: dbName = C
                                           ;***
                                           ;has an exit
                                           ;functions called:
                                           ;   _GPIO_GetPortPinState
                                           ;   _GPIO_GetPortPinState
                                           ;   _GPIO_GetPortPinState
                                           ;   _GPIO_GetPortPinState
                                           ;   _GPIO_GetPortPinState
                                           ;   _GPIO_GetPortPinState
                                           ;   _GPIO_GetPortPinState
                                           ;   _GPIO_GetPortPinState
                                           ;3 compiler assigned registers:
                                           ;   r0x1013
                                           ;   r0x1014
                                           ;   STK00
                                           ;; Starting pCode block
                                           S_SSD__SSD_GetState	code
                                           _SSD_GetState:
                                           ; 2 exit points
                                           ;	.line	201; "SSD.c"	tSSD_State SSD_GetState(tSSD ssd)
000d43   1283     bcf     0x03, 0x5        	BANKSEL	r0x1013
000d44   1303     bcf     0x03, 0x6        
000d45   00cd     movwf   0x4d             	MOVWF	r0x1013
                                           ;	.line	203; "SSD.c"	tSSD_State ret = SSD_OFF;
000d46   01ce     clrf    0x4e             	CLRF	r0x1014
                                           ;;swapping arguments (AOP_TYPEs 1/2)
                                           ;;unsigned compare: left >= lit(0x4=4), size=1
                                           ;	.line	205; "SSD.c"	switch(ssd)
000d47   3004     movlw   0x04             	MOVLW	0x04
000d48   024d     subwf   0x4d, 0x0        	SUBWF	r0x1013,W
000d49   1803     btfsc   0x03, 0x0        	BTFSC	STATUS,0
000d4a   2d8c     goto    0x058c           	GOTO	_00186_DS_
                                           ;;genSkipc:3307: created from rifx:00000000047A57B0
000d4b   300d     movlw   0x0d             	MOVLW	HIGH(_00194_DS_)
000d4c   1283     bcf     0x03, 0x5        	BANKSEL	PCLATH
000d4d   1303     bcf     0x03, 0x6        
000d4e   008a     movwf   0x0a             	MOVWF	PCLATH
000d4f   3059     movlw   0x59             	MOVLW	_00194_DS_
000d50   1283     bcf     0x03, 0x5        	BANKSEL	r0x1013
000d51   1303     bcf     0x03, 0x6        
000d52   074d     addwf   0x4d, 0x0        	ADDWF	r0x1013,W
000d53   1c03     btfss   0x03, 0x0        	BTFSS	STATUS,0
000d54   2d58     goto    0x0558           	GOTO	_00001_DS_
000d55   1283     bcf     0x03, 0x5        	BANKSEL	PCLATH
000d56   1303     bcf     0x03, 0x6        
000d57   0a8a     incf    0x0a, 0x1        	INCF	PCLATH,F
                                           _00001_DS_:
000d58   0082     movwf   0x02             	MOVWF	PCL
                                           _00194_DS_:
000d59   2d5d     goto    0x055d           	GOTO	_00181_DS_
000d5a   2d69     goto    0x0569           	GOTO	_00182_DS_
000d5b   2d75     goto    0x0575           	GOTO	_00183_DS_
000d5c   2d81     goto    0x0581           	GOTO	_00184_DS_
                                           _00181_DS_:
                                           ;	.line	208; "SSD.c"	ret = GPIO_GetPortPinState(SSD_L_PORT , SSD_L_PIN);
000d5d   3002     movlw   0x02             	MOVLW	0x02
000d5e   00ff     movwf   0x7f             	MOVWF	STK00
000d5f   3000     movlw   0x00             	MOVLW	0x00
000d60   118a     bcf     0x0a, 0x3        	PAGESEL	_GPIO_GetPortPinState
000d61   120a     bcf     0x0a, 0x4        
000d62   25c6     call    0x05c6           	CALL	_GPIO_GetPortPinState
000d63   158a     bsf     0x0a, 0x3        	PAGESEL	$
000d64   120a     bcf     0x0a, 0x4        
000d65   1283     bcf     0x03, 0x5        	BANKSEL	r0x1014
000d66   1303     bcf     0x03, 0x6        
000d67   00ce     movwf   0x4e             	MOVWF	r0x1014
                                           ;	.line	209; "SSD.c"	break;
000d68   2d8c     goto    0x058c           	GOTO	_00186_DS_
                                           _00182_DS_:
                                           ;	.line	211; "SSD.c"	ret = GPIO_GetPortPinState(SSD_ML_PORT , SSD_ML_PIN);
000d69   3003     movlw   0x03             	MOVLW	0x03
000d6a   00ff     movwf   0x7f             	MOVWF	STK00
000d6b   3000     movlw   0x00             	MOVLW	0x00
000d6c   118a     bcf     0x0a, 0x3        	PAGESEL	_GPIO_GetPortPinState
000d6d   120a     bcf     0x0a, 0x4        
000d6e   25c6     call    0x05c6           	CALL	_GPIO_GetPortPinState
000d6f   158a     bsf     0x0a, 0x3        	PAGESEL	$
000d70   120a     bcf     0x0a, 0x4        
000d71   1283     bcf     0x03, 0x5        	BANKSEL	r0x1014
000d72   1303     bcf     0x03, 0x6        
000d73   00ce     movwf   0x4e             	MOVWF	r0x1014
                                           ;	.line	212; "SSD.c"	break;
000d74   2d8c     goto    0x058c           	GOTO	_00186_DS_
                                           _00183_DS_:
                                           ;	.line	214; "SSD.c"	ret = GPIO_GetPortPinState(SSD_MR_PORT , SSD_MR_PIN);
000d75   3004     movlw   0x04             	MOVLW	0x04
000d76   00ff     movwf   0x7f             	MOVWF	STK00
000d77   3000     movlw   0x00             	MOVLW	0x00
000d78   118a     bcf     0x0a, 0x3        	PAGESEL	_GPIO_GetPortPinState
000d79   120a     bcf     0x0a, 0x4        
000d7a   25c6     call    0x05c6           	CALL	_GPIO_GetPortPinState
000d7b   158a     bsf     0x0a, 0x3        	PAGESEL	$
000d7c   120a     bcf     0x0a, 0x4        
000d7d   1283     bcf     0x03, 0x5        	BANKSEL	r0x1014
000d7e   1303     bcf     0x03, 0x6        
000d7f   00ce     movwf   0x4e             	MOVWF	r0x1014
                                           ;	.line	215; "SSD.c"	break;
000d80   2d8c     goto    0x058c           	GOTO	_00186_DS_
                                           _00184_DS_:
                                           ;	.line	217; "SSD.c"	ret = GPIO_GetPortPinState(SSD_R_PORT , SSD_R_PIN);
000d81   3005     movlw   0x05             	MOVLW	0x05
000d82   00ff     movwf   0x7f             	MOVWF	STK00
000d83   3000     movlw   0x00             	MOVLW	0x00
000d84   118a     bcf     0x0a, 0x3        	PAGESEL	_GPIO_GetPortPinState
000d85   120a     bcf     0x0a, 0x4        
000d86   25c6     call    0x05c6           	CALL	_GPIO_GetPortPinState
000d87   158a     bsf     0x0a, 0x3        	PAGESEL	$
000d88   120a     bcf     0x0a, 0x4        
000d89   1283     bcf     0x03, 0x5        	BANKSEL	r0x1014
000d8a   1303     bcf     0x03, 0x6        
000d8b   00ce     movwf   0x4e             	MOVWF	r0x1014
                                           _00186_DS_:
                                           ;	.line	224; "SSD.c"	return ret;
000d8c   1283     bcf     0x03, 0x5        	BANKSEL	r0x1014
000d8d   1303     bcf     0x03, 0x6        
000d8e   084e     movf    0x4e, 0x0        	MOVF	r0x1014,W
                                           ;	.line	225; "SSD.c"	}
000d8f   0008     return                   	RETURN	
                                           ; exit point of _SSD_GetState

                                           ;***
                                           ;  pBlock Stats: dbName = C
                                           ;***
                                           ;has an exit
                                           ;3 compiler assigned registers:
                                           ;   r0x1015
                                           ;   r0x1016
                                           ;   r0x1017
                                           ;; Starting pCode block
                                           S_SSD__SSD_GetSymbol	code
                                           _SSD_GetSymbol:
                                           ; 2 exit points
                                           ;	.line	192; "SSD.c"	tSSD_Symbol SSD_GetSymbol(tSSD ssd)
000f61   1283     bcf     0x03, 0x5        	BANKSEL	r0x1015
000f62   1303     bcf     0x03, 0x6        
000f63   00cb     movwf   0x4b             	MOVWF	r0x1015
                                           ;	.line	196; "SSD.c"	ret = ssd_symbols[ssd];
000f64   3edc     addlw   0xdc             	ADDLW	(_ssd_symbols + 0)
000f65   00cb     movwf   0x4b             	MOVWF	r0x1015
000f66   3000     movlw   0x00             	MOVLW	high (_ssd_symbols + 0)
000f67   1803     btfsc   0x03, 0x0        	BTFSC	STATUS,0
000f68   3e01     addlw   0x01             	ADDLW	0x01
000f69   00cc     movwf   0x4c             	MOVWF	r0x1016
000f6a   084b     movf    0x4b, 0x0        	MOVF	r0x1015,W
000f6b   1283     bcf     0x03, 0x5        	BANKSEL	FSR
000f6c   1303     bcf     0x03, 0x6        
000f6d   0084     movwf   0x04             	MOVWF	FSR
000f6e   1383     bcf     0x03, 0x7        	BCF	STATUS,7
000f6f   1283     bcf     0x03, 0x5        	BANKSEL	r0x1016
000f70   1303     bcf     0x03, 0x6        
000f71   184c     btfsc   0x4c, 0x0        	BTFSC	r0x1016,0
000f72   1783     bsf     0x03, 0x7        	BSF	STATUS,7
000f73   1283     bcf     0x03, 0x5        	BANKSEL	INDF
000f74   1303     bcf     0x03, 0x6        
000f75   0800     movf    0x00, 0x0        	MOVF	INDF,W
                                           ;;1	MOVWF	r0x1017
                                           ;	.line	199; "SSD.c"	}
000f76   0008     return                   	RETURN	
                                           ; exit point of _SSD_GetSymbol

                                           ;***
                                           ;  pBlock Stats: dbName = C
                                           ;***
                                           ;has an exit
                                           ;functions called:
                                           ;   _GPIO_SetPortPinState
                                           ;   _GPIO_SetPortPinState
                                           ;   _GPIO_SetPortPinState
                                           ;   _GPIO_SetPortPinState
                                           ;   _GPIO_SetPortPinState
                                           ;   _GPIO_SetPortPinState
                                           ;   _GPIO_SetPortPinState
                                           ;   _GPIO_SetPortPinState
                                           ;4 compiler assigned registers:
                                           ;   r0x1018
                                           ;   STK00
                                           ;   r0x1019
                                           ;   STK01
                                           ;; Starting pCode block
                                           S_SSD__SSD_SetState	code
                                           _SSD_SetState:
                                           ; 2 exit points
                                           ;	.line	169; "SSD.c"	void SSD_SetState(tSSD ssd, tSSD_State state)
000cf4   1283     bcf     0x03, 0x5        	BANKSEL	r0x1018
000cf5   1303     bcf     0x03, 0x6        
000cf6   00c9     movwf   0x49             	MOVWF	r0x1018
000cf7   087f     movf    0x7f, 0x0        	MOVF	STK00,W
000cf8   00ca     movwf   0x4a             	MOVWF	r0x1019
                                           ;;swapping arguments (AOP_TYPEs 1/2)
                                           ;;unsigned compare: left >= lit(0x4=4), size=1
                                           ;	.line	171; "SSD.c"	switch(ssd)
000cf9   3004     movlw   0x04             	MOVLW	0x04
000cfa   0249     subwf   0x49, 0x0        	SUBWF	r0x1018,W
000cfb   1803     btfsc   0x03, 0x0        	BTFSC	STATUS,0
000cfc   2d42     goto    0x0542           	GOTO	_00165_DS_
                                           ;;genSkipc:3307: created from rifx:00000000047A57B0
000cfd   300d     movlw   0x0d             	MOVLW	HIGH(_00172_DS_)
000cfe   1283     bcf     0x03, 0x5        	BANKSEL	PCLATH
000cff   1303     bcf     0x03, 0x6        
000d00   008a     movwf   0x0a             	MOVWF	PCLATH
000d01   300b     movlw   0x0b             	MOVLW	_00172_DS_
000d02   1283     bcf     0x03, 0x5        	BANKSEL	r0x1018
000d03   1303     bcf     0x03, 0x6        
000d04   0749     addwf   0x49, 0x0        	ADDWF	r0x1018,W
000d05   1c03     btfss   0x03, 0x0        	BTFSS	STATUS,0
000d06   2d0a     goto    0x050a           	GOTO	_00002_DS_
000d07   1283     bcf     0x03, 0x5        	BANKSEL	PCLATH
000d08   1303     bcf     0x03, 0x6        
000d09   0a8a     incf    0x0a, 0x1        	INCF	PCLATH,F
                                           _00002_DS_:
000d0a   0082     movwf   0x02             	MOVWF	PCL
                                           _00172_DS_:
000d0b   2d0f     goto    0x050f           	GOTO	_00159_DS_
000d0c   2d1c     goto    0x051c           	GOTO	_00160_DS_
000d0d   2d29     goto    0x0529           	GOTO	_00161_DS_
000d0e   2d36     goto    0x0536           	GOTO	_00162_DS_
                                           _00159_DS_:
                                           ;	.line	174; "SSD.c"	GPIO_SetPortPinState(SSD_L_PORT ,SSD_L_PIN , state);
000d0f   1283     bcf     0x03, 0x5        	BANKSEL	r0x1019
000d10   1303     bcf     0x03, 0x6        
000d11   084a     movf    0x4a, 0x0        	MOVF	r0x1019,W
000d12   00fe     movwf   0x7e             	MOVWF	STK01
000d13   3002     movlw   0x02             	MOVLW	0x02
000d14   00ff     movwf   0x7f             	MOVWF	STK00
000d15   3000     movlw   0x00             	MOVLW	0x00
000d16   118a     bcf     0x0a, 0x3        	PAGESEL	_GPIO_SetPortPinState
000d17   120a     bcf     0x0a, 0x4        
000d18   2215     call    0x0215           	CALL	_GPIO_SetPortPinState
000d19   158a     bsf     0x0a, 0x3        	PAGESEL	$
000d1a   120a     bcf     0x0a, 0x4        
                                           ;	.line	175; "SSD.c"	break;
000d1b   2d42     goto    0x0542           	GOTO	_00165_DS_
                                           _00160_DS_:
                                           ;	.line	177; "SSD.c"	GPIO_SetPortPinState(SSD_ML_PORT ,SSD_ML_PIN , state);
000d1c   1283     bcf     0x03, 0x5        	BANKSEL	r0x1019
000d1d   1303     bcf     0x03, 0x6        
000d1e   084a     movf    0x4a, 0x0        	MOVF	r0x1019,W
000d1f   00fe     movwf   0x7e             	MOVWF	STK01
000d20   3003     movlw   0x03             	MOVLW	0x03
000d21   00ff     movwf   0x7f             	MOVWF	STK00
000d22   3000     movlw   0x00             	MOVLW	0x00
000d23   118a     bcf     0x0a, 0x3        	PAGESEL	_GPIO_SetPortPinState
000d24   120a     bcf     0x0a, 0x4        
000d25   2215     call    0x0215           	CALL	_GPIO_SetPortPinState
000d26   158a     bsf     0x0a, 0x3        	PAGESEL	$
000d27   120a     bcf     0x0a, 0x4        
                                           ;	.line	179; "SSD.c"	break;
000d28   2d42     goto    0x0542           	GOTO	_00165_DS_
                                           _00161_DS_:
                                           ;	.line	181; "SSD.c"	GPIO_SetPortPinState(SSD_MR_PORT , SSD_MR_PIN, state);
000d29   1283     bcf     0x03, 0x5        	BANKSEL	r0x1019
000d2a   1303     bcf     0x03, 0x6        
000d2b   084a     movf    0x4a, 0x0        	MOVF	r0x1019,W
000d2c   00fe     movwf   0x7e             	MOVWF	STK01
000d2d   3004     movlw   0x04             	MOVLW	0x04
000d2e   00ff     movwf   0x7f             	MOVWF	STK00
000d2f   3000     movlw   0x00             	MOVLW	0x00
000d30   118a     bcf     0x0a, 0x3        	PAGESEL	_GPIO_SetPortPinState
000d31   120a     bcf     0x0a, 0x4        
000d32   2215     call    0x0215           	CALL	_GPIO_SetPortPinState
000d33   158a     bsf     0x0a, 0x3        	PAGESEL	$
000d34   120a     bcf     0x0a, 0x4        
                                           ;	.line	182; "SSD.c"	break;
000d35   2d42     goto    0x0542           	GOTO	_00165_DS_
                                           _00162_DS_:
                                           ;	.line	184; "SSD.c"	GPIO_SetPortPinState(PORT_A, SSD_R_PIN, state);
000d36   1283     bcf     0x03, 0x5        	BANKSEL	r0x1019
000d37   1303     bcf     0x03, 0x6        
000d38   084a     movf    0x4a, 0x0        	MOVF	r0x1019,W
000d39   00fe     movwf   0x7e             	MOVWF	STK01
000d3a   3005     movlw   0x05             	MOVLW	0x05
000d3b   00ff     movwf   0x7f             	MOVWF	STK00
000d3c   3000     movlw   0x00             	MOVLW	0x00
000d3d   118a     bcf     0x0a, 0x3        	PAGESEL	_GPIO_SetPortPinState
000d3e   120a     bcf     0x0a, 0x4        
000d3f   2215     call    0x0215           	CALL	_GPIO_SetPortPinState
000d40   158a     bsf     0x0a, 0x3        	PAGESEL	$
000d41   120a     bcf     0x0a, 0x4        
                                           _00165_DS_:
                                           ;	.line	190; "SSD.c"	}
000d42   0008     return                   	RETURN	
                                           ; exit point of _SSD_SetState

                                           ;***
                                           ;  pBlock Stats: dbName = C
                                           ;***
                                           ;has an exit
                                           ;4 compiler assigned registers:
                                           ;   r0x101A
                                           ;   STK00
                                           ;   r0x101B
                                           ;   r0x101C
                                           ;; Starting pCode block
                                           S_SSD__SSD_SetSymbol	code
                                           _SSD_SetSymbol:
                                           ; 2 exit points
                                           ;	.line	164; "SSD.c"	void SSD_SetSymbol(tSSD ssd, tSSD_Symbol symbol)
000f47   1283     bcf     0x03, 0x5        	BANKSEL	r0x101A
000f48   1303     bcf     0x03, 0x6        
000f49   00c6     movwf   0x46             	MOVWF	r0x101A
000f4a   087f     movf    0x7f, 0x0        	MOVF	STK00,W
000f4b   00c7     movwf   0x47             	MOVWF	r0x101B
                                           ;	.line	166; "SSD.c"	ssd_symbols[ssd] = symbol;
000f4c   0846     movf    0x46, 0x0        	MOVF	r0x101A,W
000f4d   3edc     addlw   0xdc             	ADDLW	(_ssd_symbols + 0)
000f4e   00c6     movwf   0x46             	MOVWF	r0x101A
000f4f   3000     movlw   0x00             	MOVLW	high (_ssd_symbols + 0)
000f50   1803     btfsc   0x03, 0x0        	BTFSC	STATUS,0
000f51   3e01     addlw   0x01             	ADDLW	0x01
000f52   00c8     movwf   0x48             	MOVWF	r0x101C
000f53   0846     movf    0x46, 0x0        	MOVF	r0x101A,W
000f54   1283     bcf     0x03, 0x5        	BANKSEL	FSR
000f55   1303     bcf     0x03, 0x6        
000f56   0084     movwf   0x04             	MOVWF	FSR
000f57   1383     bcf     0x03, 0x7        	BCF	STATUS,7
000f58   1283     bcf     0x03, 0x5        	BANKSEL	r0x101C
000f59   1303     bcf     0x03, 0x6        
000f5a   1848     btfsc   0x48, 0x0        	BTFSC	r0x101C,0
000f5b   1783     bsf     0x03, 0x7        	BSF	STATUS,7
000f5c   0847     movf    0x47, 0x0        	MOVF	r0x101B,W
000f5d   1283     bcf     0x03, 0x5        	BANKSEL	INDF
000f5e   1303     bcf     0x03, 0x6        
000f5f   0080     movwf   0x00             	MOVWF	INDF
                                           ;	.line	167; "SSD.c"	}
000f60   0008     return                   	RETURN	
                                           ; exit point of _SSD_SetSymbol

                                           ;***
                                           ;  pBlock Stats: dbName = C
                                           ;***
                                           ;has an exit
                                           ;functions called:
                                           ;   _SSD_SetState
                                           ;   _SSD_SetState
                                           ;   _SSD_SetState
                                           ;   _SSD_SetState
                                           ;   _toggle_dot_state
                                           ;   _GPIO_SetPortState
                                           ;   _SSD_SetState
                                           ;   _GPIO_SetPortState
                                           ;   _SSD_SetState
                                           ;   _GPIO_SetPortState
                                           ;   _SSD_SetState
                                           ;   _SSD_SetState
                                           ;   _SSD_SetState
                                           ;   _SSD_SetState
                                           ;   _SSD_SetState
                                           ;   _toggle_dot_state
                                           ;   _GPIO_SetPortState
                                           ;   _SSD_SetState
                                           ;   _GPIO_SetPortState
                                           ;   _SSD_SetState
                                           ;   _GPIO_SetPortState
                                           ;   _SSD_SetState
                                           ;5 compiler assigned registers:
                                           ;   STK00
                                           ;   r0x101D
                                           ;   r0x101E
                                           ;   r0x101F
                                           ;   r0x1020
                                           ;; Starting pCode block
                                           S_SSD__SSD_Update_2	code
                                           _SSD_Update_2:
                                           ; 2 exit points
                                           ;	.line	108; "SSD.c"	toggle_dot_time++;
000800   1283     bcf     0x03, 0x5        	BANKSEL	_toggle_dot_time
000801   1703     bsf     0x03, 0x6        
000802   0a92     incf    0x12, 0x1        	INCF	_toggle_dot_time,F
                                           ;	.line	110; "SSD.c"	SSD_SetState(SSD_N, SSD_OFF);
000803   3000     movlw   0x00             	MOVLW	0x00
000804   00ff     movwf   0x7f             	MOVWF	STK00
000805   3002     movlw   0x02             	MOVLW	0x02
000806   158a     bsf     0x0a, 0x3        	PAGESEL	_SSD_SetState
000807   120a     bcf     0x0a, 0x4        
000808   24f4     call    0x04f4           	CALL	_SSD_SetState
000809   158a     bsf     0x0a, 0x3        	PAGESEL	$
00080a   120a     bcf     0x0a, 0x4        
                                           ;	.line	111; "SSD.c"	SSD_SetState(SSD_R, SSD_OFF);
00080b   3000     movlw   0x00             	MOVLW	0x00
00080c   00ff     movwf   0x7f             	MOVWF	STK00
00080d   3003     movlw   0x03             	MOVLW	0x03
00080e   158a     bsf     0x0a, 0x3        	PAGESEL	_SSD_SetState
00080f   120a     bcf     0x0a, 0x4        
000810   24f4     call    0x04f4           	CALL	_SSD_SetState
000811   158a     bsf     0x0a, 0x3        	PAGESEL	$
000812   120a     bcf     0x0a, 0x4        
                                           ;	.line	113; "SSD.c"	SSD_SetState(SSD_L, SSD_OFF);
000813   3000     movlw   0x00             	MOVLW	0x00
000814   00ff     movwf   0x7f             	MOVWF	STK00
000815   3000     movlw   0x00             	MOVLW	0x00
000816   158a     bsf     0x0a, 0x3        	PAGESEL	_SSD_SetState
000817   120a     bcf     0x0a, 0x4        
000818   24f4     call    0x04f4           	CALL	_SSD_SetState
000819   158a     bsf     0x0a, 0x3        	PAGESEL	$
00081a   120a     bcf     0x0a, 0x4        
                                           ;	.line	114; "SSD.c"	SSD_SetState(SSD_M, SSD_OFF);
00081b   3000     movlw   0x00             	MOVLW	0x00
00081c   00ff     movwf   0x7f             	MOVWF	STK00
00081d   3001     movlw   0x01             	MOVLW	0x01
00081e   158a     bsf     0x0a, 0x3        	PAGESEL	_SSD_SetState
00081f   120a     bcf     0x0a, 0x4        
000820   24f4     call    0x04f4           	CALL	_SSD_SetState
000821   158a     bsf     0x0a, 0x3        	PAGESEL	$
000822   120a     bcf     0x0a, 0x4        
                                           ;	.line	115; "SSD.c"	if( toggle_dot_time ==  NUM_OF_TICKS_PER_ONE_SECOND)
000823   1283     bcf     0x03, 0x5        	BANKSEL	_toggle_dot_time
000824   1703     bsf     0x03, 0x6        
000825   0812     movf    0x12, 0x0        	MOVF	_toggle_dot_time,W
000826   3a32     xorlw   0x32             	XORLW	0x32
000827   1d03     btfss   0x03, 0x2        	BTFSS	STATUS,2
000828   282f     goto    0x002f           	GOTO	_00140_DS_
                                           ;	.line	117; "SSD.c"	toggle_dot_time=0;
000829   0192     clrf    0x12             	CLRF	_toggle_dot_time
                                           ;	.line	118; "SSD.c"	toggle_dot_state();
00082a   158a     bsf     0x0a, 0x3        	PAGESEL	_toggle_dot_state
00082b   120a     bcf     0x0a, 0x4        
00082c   279b     call    0x079b           	CALL	_toggle_dot_state
00082d   158a     bsf     0x0a, 0x3        	PAGESEL	$
00082e   120a     bcf     0x0a, 0x4        
                                           _00140_DS_:
                                           ;	.line	121; "SSD.c"	if(current_ssd ==SSD_M )
00082f   1283     bcf     0x03, 0x5        	BANKSEL	_SSD_Update_2_current_ssd_65536_26
000830   1703     bsf     0x03, 0x6        
000831   0815     movf    0x15, 0x0        	MOVF	_SSD_Update_2_current_ssd_65536_26,W
000832   3a01     xorlw   0x01             	XORLW	0x01
000833   1d03     btfss   0x03, 0x2        	BTFSS	STATUS,2
000834   28c0     goto    0x00c0           	GOTO	_00145_DS_
                                           ;	.line	123; "SSD.c"	if( dot_state == 1)
000835   1283     bcf     0x03, 0x5        	BANKSEL	_dot_state
000836   1703     bsf     0x03, 0x6        
000837   0813     movf    0x13, 0x0        	MOVF	_dot_state,W
000838   3a01     xorlw   0x01             	XORLW	0x01
000839   1d03     btfss   0x03, 0x2        	BTFSS	STATUS,2
00083a   287f     goto    0x007f           	GOTO	_00142_DS_
                                           ;	.line	127; "SSD.c"	GPIO_SetPortState(SSD_data_PORT , ssd_data[ssd_symbols[current_ssd]] | 0x80);
00083b   1283     bcf     0x03, 0x5        	BANKSEL	_SSD_Update_2_current_ssd_65536_26
00083c   1703     bsf     0x03, 0x6        
00083d   0815     movf    0x15, 0x0        	MOVF	_SSD_Update_2_current_ssd_65536_26,W
00083e   3edc     addlw   0xdc             	ADDLW	(_ssd_symbols + 0)
00083f   1283     bcf     0x03, 0x5        	BANKSEL	r0x101D
000840   1303     bcf     0x03, 0x6        
000841   00c2     movwf   0x42             	MOVWF	r0x101D
000842   3000     movlw   0x00             	MOVLW	high (_ssd_symbols + 0)
000843   1803     btfsc   0x03, 0x0        	BTFSC	STATUS,0
000844   3e01     addlw   0x01             	ADDLW	0x01
000845   00c3     movwf   0x43             	MOVWF	r0x101E
000846   0842     movf    0x42, 0x0        	MOVF	r0x101D,W
000847   1283     bcf     0x03, 0x5        	BANKSEL	FSR
000848   1303     bcf     0x03, 0x6        
000849   0084     movwf   0x04             	MOVWF	FSR
00084a   1383     bcf     0x03, 0x7        	BCF	STATUS,7
00084b   1283     bcf     0x03, 0x5        	BANKSEL	r0x101E
00084c   1303     bcf     0x03, 0x6        
00084d   1843     btfsc   0x43, 0x0        	BTFSC	r0x101E,0
00084e   1783     bsf     0x03, 0x7        	BSF	STATUS,7
00084f   1283     bcf     0x03, 0x5        	BANKSEL	INDF
000850   1303     bcf     0x03, 0x6        
000851   0800     movf    0x00, 0x0        	MOVF	INDF,W
000852   1283     bcf     0x03, 0x5        	BANKSEL	r0x101F
000853   1303     bcf     0x03, 0x6        
000854   00c4     movwf   0x44             	MOVWF	r0x101F
000855   3eac     addlw   0xac             	ADDLW	(_ssd_data + 0)
000856   00c2     movwf   0x42             	MOVWF	r0x101D
000857   3000     movlw   0x00             	MOVLW	high (_ssd_data + 0)
000858   1803     btfsc   0x03, 0x0        	BTFSC	STATUS,0
000859   3e01     addlw   0x01             	ADDLW	0x01
00085a   00c3     movwf   0x43             	MOVWF	r0x101E
00085b   0842     movf    0x42, 0x0        	MOVF	r0x101D,W
00085c   1283     bcf     0x03, 0x5        	BANKSEL	FSR
00085d   1303     bcf     0x03, 0x6        
00085e   0084     movwf   0x04             	MOVWF	FSR
00085f   1383     bcf     0x03, 0x7        	BCF	STATUS,7
000860   1283     bcf     0x03, 0x5        	BANKSEL	r0x101E
000861   1303     bcf     0x03, 0x6        
000862   1843     btfsc   0x43, 0x0        	BTFSC	r0x101E,0
000863   1783     bsf     0x03, 0x7        	BSF	STATUS,7
000864   1283     bcf     0x03, 0x5        	BANKSEL	INDF
000865   1303     bcf     0x03, 0x6        
000866   0800     movf    0x00, 0x0        	MOVF	INDF,W
000867   1283     bcf     0x03, 0x5        	BANKSEL	r0x101F
000868   1303     bcf     0x03, 0x6        
000869   00c4     movwf   0x44             	MOVWF	r0x101F
00086a   3080     movlw   0x80             	MOVLW	0x80
00086b   0444     iorwf   0x44, 0x0        	IORWF	r0x101F,W
00086c   00c2     movwf   0x42             	MOVWF	r0x101D
00086d   00ff     movwf   0x7f             	MOVWF	STK00
00086e   3003     movlw   0x03             	MOVLW	0x03
00086f   158a     bsf     0x0a, 0x3        	PAGESEL	_GPIO_SetPortState
000870   120a     bcf     0x0a, 0x4        
000871   2626     call    0x0626           	CALL	_GPIO_SetPortState
000872   158a     bsf     0x0a, 0x3        	PAGESEL	$
000873   120a     bcf     0x0a, 0x4        
                                           ;	.line	129; "SSD.c"	SSD_SetState(current_ssd, SSD_ON);
000874   3001     movlw   0x01             	MOVLW	0x01
000875   00ff     movwf   0x7f             	MOVWF	STK00
000876   1283     bcf     0x03, 0x5        	BANKSEL	_SSD_Update_2_current_ssd_65536_26
000877   1703     bsf     0x03, 0x6        
000878   0815     movf    0x15, 0x0        	MOVF	_SSD_Update_2_current_ssd_65536_26,W
000879   158a     bsf     0x0a, 0x3        	PAGESEL	_SSD_SetState
00087a   120a     bcf     0x0a, 0x4        
00087b   24f4     call    0x04f4           	CALL	_SSD_SetState
00087c   158a     bsf     0x0a, 0x3        	PAGESEL	$
00087d   120a     bcf     0x0a, 0x4        
00087e   2900     goto    0x0100           	GOTO	_00146_DS_
                                           _00142_DS_:
                                           ;	.line	135; "SSD.c"	GPIO_SetPortState(SSD_data_PORT , ssd_data[ssd_symbols[current_ssd]] );
00087f   1283     bcf     0x03, 0x5        	BANKSEL	_SSD_Update_2_current_ssd_65536_26
000880   1703     bsf     0x03, 0x6        
000881   0815     movf    0x15, 0x0        	MOVF	_SSD_Update_2_current_ssd_65536_26,W
000882   3edc     addlw   0xdc             	ADDLW	(_ssd_symbols + 0)
000883   1283     bcf     0x03, 0x5        	BANKSEL	r0x101D
000884   1303     bcf     0x03, 0x6        
000885   00c2     movwf   0x42             	MOVWF	r0x101D
000886   3000     movlw   0x00             	MOVLW	high (_ssd_symbols + 0)
000887   1803     btfsc   0x03, 0x0        	BTFSC	STATUS,0
000888   3e01     addlw   0x01             	ADDLW	0x01
000889   00c4     movwf   0x44             	MOVWF	r0x101F
00088a   0842     movf    0x42, 0x0        	MOVF	r0x101D,W
00088b   1283     bcf     0x03, 0x5        	BANKSEL	FSR
00088c   1303     bcf     0x03, 0x6        
00088d   0084     movwf   0x04             	MOVWF	FSR
00088e   1383     bcf     0x03, 0x7        	BCF	STATUS,7
00088f   1283     bcf     0x03, 0x5        	BANKSEL	r0x101F
000890   1303     bcf     0x03, 0x6        
000891   1844     btfsc   0x44, 0x0        	BTFSC	r0x101F,0
000892   1783     bsf     0x03, 0x7        	BSF	STATUS,7
000893   1283     bcf     0x03, 0x5        	BANKSEL	INDF
000894   1303     bcf     0x03, 0x6        
000895   0800     movf    0x00, 0x0        	MOVF	INDF,W
000896   1283     bcf     0x03, 0x5        	BANKSEL	r0x1020
000897   1303     bcf     0x03, 0x6        
000898   00c5     movwf   0x45             	MOVWF	r0x1020
000899   3eac     addlw   0xac             	ADDLW	(_ssd_data + 0)
00089a   00c2     movwf   0x42             	MOVWF	r0x101D
00089b   3000     movlw   0x00             	MOVLW	high (_ssd_data + 0)
00089c   1803     btfsc   0x03, 0x0        	BTFSC	STATUS,0
00089d   3e01     addlw   0x01             	ADDLW	0x01
00089e   00c4     movwf   0x44             	MOVWF	r0x101F
00089f   0842     movf    0x42, 0x0        	MOVF	r0x101D,W
0008a0   1283     bcf     0x03, 0x5        	BANKSEL	FSR
0008a1   1303     bcf     0x03, 0x6        
0008a2   0084     movwf   0x04             	MOVWF	FSR
0008a3   1383     bcf     0x03, 0x7        	BCF	STATUS,7
0008a4   1283     bcf     0x03, 0x5        	BANKSEL	r0x101F
0008a5   1303     bcf     0x03, 0x6        
0008a6   1844     btfsc   0x44, 0x0        	BTFSC	r0x101F,0
0008a7   1783     bsf     0x03, 0x7        	BSF	STATUS,7
0008a8   1283     bcf     0x03, 0x5        	BANKSEL	INDF
0008a9   1303     bcf     0x03, 0x6        
0008aa   0800     movf    0x00, 0x0        	MOVF	INDF,W
0008ab   1283     bcf     0x03, 0x5        	BANKSEL	r0x1020
0008ac   1303     bcf     0x03, 0x6        
0008ad   00c5     movwf   0x45             	MOVWF	r0x1020
0008ae   00ff     movwf   0x7f             	MOVWF	STK00
0008af   3003     movlw   0x03             	MOVLW	0x03
0008b0   158a     bsf     0x0a, 0x3        	PAGESEL	_GPIO_SetPortState
0008b1   120a     bcf     0x0a, 0x4        
0008b2   2626     call    0x0626           	CALL	_GPIO_SetPortState
0008b3   158a     bsf     0x0a, 0x3        	PAGESEL	$
0008b4   120a     bcf     0x0a, 0x4        
                                           ;	.line	137; "SSD.c"	SSD_SetState(current_ssd, SSD_ON);
0008b5   3001     movlw   0x01             	MOVLW	0x01
0008b6   00ff     movwf   0x7f             	MOVWF	STK00
0008b7   1283     bcf     0x03, 0x5        	BANKSEL	_SSD_Update_2_current_ssd_65536_26
0008b8   1703     bsf     0x03, 0x6        
0008b9   0815     movf    0x15, 0x0        	MOVF	_SSD_Update_2_current_ssd_65536_26,W
0008ba   158a     bsf     0x0a, 0x3        	PAGESEL	_SSD_SetState
0008bb   120a     bcf     0x0a, 0x4        
0008bc   24f4     call    0x04f4           	CALL	_SSD_SetState
0008bd   158a     bsf     0x0a, 0x3        	PAGESEL	$
0008be   120a     bcf     0x0a, 0x4        
0008bf   2900     goto    0x0100           	GOTO	_00146_DS_
                                           _00145_DS_:
                                           ;	.line	146; "SSD.c"	GPIO_SetPortState(SSD_data_PORT , ssd_data[ssd_symbols[current_ssd]] );
0008c0   1283     bcf     0x03, 0x5        	BANKSEL	_SSD_Update_2_current_ssd_65536_26
0008c1   1703     bsf     0x03, 0x6        
0008c2   0815     movf    0x15, 0x0        	MOVF	_SSD_Update_2_current_ssd_65536_26,W
0008c3   3edc     addlw   0xdc             	ADDLW	(_ssd_symbols + 0)
0008c4   1283     bcf     0x03, 0x5        	BANKSEL	r0x101D
0008c5   1303     bcf     0x03, 0x6        
0008c6   00c2     movwf   0x42             	MOVWF	r0x101D
0008c7   3000     movlw   0x00             	MOVLW	high (_ssd_symbols + 0)
0008c8   1803     btfsc   0x03, 0x0        	BTFSC	STATUS,0
0008c9   3e01     addlw   0x01             	ADDLW	0x01
0008ca   00c4     movwf   0x44             	MOVWF	r0x101F
0008cb   0842     movf    0x42, 0x0        	MOVF	r0x101D,W
0008cc   1283     bcf     0x03, 0x5        	BANKSEL	FSR
0008cd   1303     bcf     0x03, 0x6        
0008ce   0084     movwf   0x04             	MOVWF	FSR
0008cf   1383     bcf     0x03, 0x7        	BCF	STATUS,7
0008d0   1283     bcf     0x03, 0x5        	BANKSEL	r0x101F
0008d1   1303     bcf     0x03, 0x6        
0008d2   1844     btfsc   0x44, 0x0        	BTFSC	r0x101F,0
0008d3   1783     bsf     0x03, 0x7        	BSF	STATUS,7
0008d4   1283     bcf     0x03, 0x5        	BANKSEL	INDF
0008d5   1303     bcf     0x03, 0x6        
0008d6   0800     movf    0x00, 0x0        	MOVF	INDF,W
0008d7   1283     bcf     0x03, 0x5        	BANKSEL	r0x1020
0008d8   1303     bcf     0x03, 0x6        
0008d9   00c5     movwf   0x45             	MOVWF	r0x1020
0008da   3eac     addlw   0xac             	ADDLW	(_ssd_data + 0)
0008db   00c2     movwf   0x42             	MOVWF	r0x101D
0008dc   3000     movlw   0x00             	MOVLW	high (_ssd_data + 0)
0008dd   1803     btfsc   0x03, 0x0        	BTFSC	STATUS,0
0008de   3e01     addlw   0x01             	ADDLW	0x01
0008df   00c4     movwf   0x44             	MOVWF	r0x101F
0008e0   0842     movf    0x42, 0x0        	MOVF	r0x101D,W
0008e1   1283     bcf     0x03, 0x5        	BANKSEL	FSR
0008e2   1303     bcf     0x03, 0x6        
0008e3   0084     movwf   0x04             	MOVWF	FSR
0008e4   1383     bcf     0x03, 0x7        	BCF	STATUS,7
0008e5   1283     bcf     0x03, 0x5        	BANKSEL	r0x101F
0008e6   1303     bcf     0x03, 0x6        
0008e7   1844     btfsc   0x44, 0x0        	BTFSC	r0x101F,0
0008e8   1783     bsf     0x03, 0x7        	BSF	STATUS,7
0008e9   1283     bcf     0x03, 0x5        	BANKSEL	INDF
0008ea   1303     bcf     0x03, 0x6        
0008eb   0800     movf    0x00, 0x0        	MOVF	INDF,W
0008ec   1283     bcf     0x03, 0x5        	BANKSEL	r0x1020
0008ed   1303     bcf     0x03, 0x6        
0008ee   00c5     movwf   0x45             	MOVWF	r0x1020
0008ef   00ff     movwf   0x7f             	MOVWF	STK00
0008f0   3003     movlw   0x03             	MOVLW	0x03
0008f1   158a     bsf     0x0a, 0x3        	PAGESEL	_GPIO_SetPortState
0008f2   120a     bcf     0x0a, 0x4        
0008f3   2626     call    0x0626           	CALL	_GPIO_SetPortState
0008f4   158a     bsf     0x0a, 0x3        	PAGESEL	$
0008f5   120a     bcf     0x0a, 0x4        
                                           ;	.line	148; "SSD.c"	SSD_SetState(current_ssd, SSD_ON);
0008f6   3001     movlw   0x01             	MOVLW	0x01
0008f7   00ff     movwf   0x7f             	MOVWF	STK00
0008f8   1283     bcf     0x03, 0x5        	BANKSEL	_SSD_Update_2_current_ssd_65536_26
0008f9   1703     bsf     0x03, 0x6        
0008fa   0815     movf    0x15, 0x0        	MOVF	_SSD_Update_2_current_ssd_65536_26,W
0008fb   158a     bsf     0x0a, 0x3        	PAGESEL	_SSD_SetState
0008fc   120a     bcf     0x0a, 0x4        
0008fd   24f4     call    0x04f4           	CALL	_SSD_SetState
0008fe   158a     bsf     0x0a, 0x3        	PAGESEL	$
0008ff   120a     bcf     0x0a, 0x4        
                                           _00146_DS_:
                                           ;	.line	151; "SSD.c"	if(current_ssd == SSD_R)
000900   1283     bcf     0x03, 0x5        	BANKSEL	_SSD_Update_2_current_ssd_65536_26
000901   1703     bsf     0x03, 0x6        
000902   0815     movf    0x15, 0x0        	MOVF	_SSD_Update_2_current_ssd_65536_26,W
000903   3a03     xorlw   0x03             	XORLW	0x03
000904   1d03     btfss   0x03, 0x2        	BTFSS	STATUS,2
000905   2908     goto    0x0108           	GOTO	_00148_DS_
                                           ;	.line	153; "SSD.c"	current_ssd  = SSD_L;
000906   0195     clrf    0x15             	CLRF	_SSD_Update_2_current_ssd_65536_26
000907   290b     goto    0x010b           	GOTO	_00150_DS_
                                           _00148_DS_:
                                           ;	.line	157; "SSD.c"	current_ssd++;
000908   1283     bcf     0x03, 0x5        	BANKSEL	_SSD_Update_2_current_ssd_65536_26
000909   1703     bsf     0x03, 0x6        
00090a   0a95     incf    0x15, 0x1        	INCF	_SSD_Update_2_current_ssd_65536_26,F
                                           _00150_DS_:
                                           ;	.line	162; "SSD.c"	}
00090b   0008     return                   	RETURN	
                                           ; exit point of _SSD_Update_2

                                           ;***
                                           ;  pBlock Stats: dbName = C
                                           ;***
                                           ;has an exit
                                           ;functions called:
                                           ;   _SSD_SetState
                                           ;   _SSD_SetState
                                           ;   _SSD_SetState
                                           ;   _SSD_SetState
                                           ;   _GPIO_SetPortState
                                           ;   _SSD_SetState
                                           ;   _SSD_SetState
                                           ;   _SSD_SetState
                                           ;   _SSD_SetState
                                           ;   _SSD_SetState
                                           ;   _GPIO_SetPortState
                                           ;   _SSD_SetState
                                           ;4 compiler assigned registers:
                                           ;   STK00
                                           ;   r0x1021
                                           ;   r0x1022
                                           ;   r0x1023
                                           ;; Starting pCode block
                                           S_SSD__SSD_Update	code
                                           _SSD_Update:
                                           ; 2 exit points
                                           ;	.line	80; "SSD.c"	SSD_SetState(SSD_N, SSD_OFF);
000afb   3000     movlw   0x00             	MOVLW	0x00
000afc   00ff     movwf   0x7f             	MOVWF	STK00
000afd   3002     movlw   0x02             	MOVLW	0x02
000afe   158a     bsf     0x0a, 0x3        	PAGESEL	_SSD_SetState
000aff   120a     bcf     0x0a, 0x4        
000b00   24f4     call    0x04f4           	CALL	_SSD_SetState
000b01   158a     bsf     0x0a, 0x3        	PAGESEL	$
000b02   120a     bcf     0x0a, 0x4        
                                           ;	.line	81; "SSD.c"	SSD_SetState(SSD_R, SSD_OFF);
000b03   3000     movlw   0x00             	MOVLW	0x00
000b04   00ff     movwf   0x7f             	MOVWF	STK00
000b05   3003     movlw   0x03             	MOVLW	0x03
000b06   158a     bsf     0x0a, 0x3        	PAGESEL	_SSD_SetState
000b07   120a     bcf     0x0a, 0x4        
000b08   24f4     call    0x04f4           	CALL	_SSD_SetState
000b09   158a     bsf     0x0a, 0x3        	PAGESEL	$
000b0a   120a     bcf     0x0a, 0x4        
                                           ;	.line	83; "SSD.c"	SSD_SetState(SSD_L, SSD_OFF);
000b0b   3000     movlw   0x00             	MOVLW	0x00
000b0c   00ff     movwf   0x7f             	MOVWF	STK00
000b0d   3000     movlw   0x00             	MOVLW	0x00
000b0e   158a     bsf     0x0a, 0x3        	PAGESEL	_SSD_SetState
000b0f   120a     bcf     0x0a, 0x4        
000b10   24f4     call    0x04f4           	CALL	_SSD_SetState
000b11   158a     bsf     0x0a, 0x3        	PAGESEL	$
000b12   120a     bcf     0x0a, 0x4        
                                           ;	.line	84; "SSD.c"	SSD_SetState(SSD_M, SSD_OFF);
000b13   3000     movlw   0x00             	MOVLW	0x00
000b14   00ff     movwf   0x7f             	MOVWF	STK00
000b15   3001     movlw   0x01             	MOVLW	0x01
000b16   158a     bsf     0x0a, 0x3        	PAGESEL	_SSD_SetState
000b17   120a     bcf     0x0a, 0x4        
000b18   24f4     call    0x04f4           	CALL	_SSD_SetState
000b19   158a     bsf     0x0a, 0x3        	PAGESEL	$
000b1a   120a     bcf     0x0a, 0x4        
                                           ;	.line	87; "SSD.c"	GPIO_SetPortState(SSD_data_PORT , ssd_data[ssd_symbols[current_ssd]] );
000b1b   1283     bcf     0x03, 0x5        	BANKSEL	_SSD_Update_current_ssd_65536_22
000b1c   1703     bsf     0x03, 0x6        
000b1d   0814     movf    0x14, 0x0        	MOVF	_SSD_Update_current_ssd_65536_22,W
000b1e   3edc     addlw   0xdc             	ADDLW	(_ssd_symbols + 0)
000b1f   1283     bcf     0x03, 0x5        	BANKSEL	r0x1021
000b20   1303     bcf     0x03, 0x6        
000b21   00bf     movwf   0x3f             	MOVWF	r0x1021
000b22   3000     movlw   0x00             	MOVLW	high (_ssd_symbols + 0)
000b23   1803     btfsc   0x03, 0x0        	BTFSC	STATUS,0
000b24   3e01     addlw   0x01             	ADDLW	0x01
000b25   00c0     movwf   0x40             	MOVWF	r0x1022
000b26   083f     movf    0x3f, 0x0        	MOVF	r0x1021,W
000b27   1283     bcf     0x03, 0x5        	BANKSEL	FSR
000b28   1303     bcf     0x03, 0x6        
000b29   0084     movwf   0x04             	MOVWF	FSR
000b2a   1383     bcf     0x03, 0x7        	BCF	STATUS,7
000b2b   1283     bcf     0x03, 0x5        	BANKSEL	r0x1022
000b2c   1303     bcf     0x03, 0x6        
000b2d   1840     btfsc   0x40, 0x0        	BTFSC	r0x1022,0
000b2e   1783     bsf     0x03, 0x7        	BSF	STATUS,7
000b2f   1283     bcf     0x03, 0x5        	BANKSEL	INDF
000b30   1303     bcf     0x03, 0x6        
000b31   0800     movf    0x00, 0x0        	MOVF	INDF,W
000b32   1283     bcf     0x03, 0x5        	BANKSEL	r0x1023
000b33   1303     bcf     0x03, 0x6        
000b34   00c1     movwf   0x41             	MOVWF	r0x1023
000b35   3eac     addlw   0xac             	ADDLW	(_ssd_data + 0)
000b36   00bf     movwf   0x3f             	MOVWF	r0x1021
000b37   3000     movlw   0x00             	MOVLW	high (_ssd_data + 0)
000b38   1803     btfsc   0x03, 0x0        	BTFSC	STATUS,0
000b39   3e01     addlw   0x01             	ADDLW	0x01
000b3a   00c0     movwf   0x40             	MOVWF	r0x1022
000b3b   083f     movf    0x3f, 0x0        	MOVF	r0x1021,W
000b3c   1283     bcf     0x03, 0x5        	BANKSEL	FSR
000b3d   1303     bcf     0x03, 0x6        
000b3e   0084     movwf   0x04             	MOVWF	FSR
000b3f   1383     bcf     0x03, 0x7        	BCF	STATUS,7
000b40   1283     bcf     0x03, 0x5        	BANKSEL	r0x1022
000b41   1303     bcf     0x03, 0x6        
000b42   1840     btfsc   0x40, 0x0        	BTFSC	r0x1022,0
000b43   1783     bsf     0x03, 0x7        	BSF	STATUS,7
000b44   1283     bcf     0x03, 0x5        	BANKSEL	INDF
000b45   1303     bcf     0x03, 0x6        
000b46   0800     movf    0x00, 0x0        	MOVF	INDF,W
000b47   1283     bcf     0x03, 0x5        	BANKSEL	r0x1023
000b48   1303     bcf     0x03, 0x6        
000b49   00c1     movwf   0x41             	MOVWF	r0x1023
000b4a   00ff     movwf   0x7f             	MOVWF	STK00
000b4b   3003     movlw   0x03             	MOVLW	0x03
000b4c   158a     bsf     0x0a, 0x3        	PAGESEL	_GPIO_SetPortState
000b4d   120a     bcf     0x0a, 0x4        
000b4e   2626     call    0x0626           	CALL	_GPIO_SetPortState
000b4f   158a     bsf     0x0a, 0x3        	PAGESEL	$
000b50   120a     bcf     0x0a, 0x4        
                                           ;	.line	89; "SSD.c"	SSD_SetState(current_ssd, SSD_ON);
000b51   3001     movlw   0x01             	MOVLW	0x01
000b52   00ff     movwf   0x7f             	MOVWF	STK00
000b53   1283     bcf     0x03, 0x5        	BANKSEL	_SSD_Update_current_ssd_65536_22
000b54   1703     bsf     0x03, 0x6        
000b55   0814     movf    0x14, 0x0        	MOVF	_SSD_Update_current_ssd_65536_22,W
000b56   158a     bsf     0x0a, 0x3        	PAGESEL	_SSD_SetState
000b57   120a     bcf     0x0a, 0x4        
000b58   24f4     call    0x04f4           	CALL	_SSD_SetState
000b59   158a     bsf     0x0a, 0x3        	PAGESEL	$
000b5a   120a     bcf     0x0a, 0x4        
                                           ;	.line	91; "SSD.c"	if(current_ssd == SSD_R)
000b5b   1283     bcf     0x03, 0x5        	BANKSEL	_SSD_Update_current_ssd_65536_22
000b5c   1703     bsf     0x03, 0x6        
000b5d   0814     movf    0x14, 0x0        	MOVF	_SSD_Update_current_ssd_65536_22,W
000b5e   3a03     xorlw   0x03             	XORLW	0x03
000b5f   1d03     btfss   0x03, 0x2        	BTFSS	STATUS,2
000b60   2b63     goto    0x0363           	GOTO	_00132_DS_
                                           ;	.line	93; "SSD.c"	current_ssd  = SSD_L;
000b61   0194     clrf    0x14             	CLRF	_SSD_Update_current_ssd_65536_22
000b62   2b66     goto    0x0366           	GOTO	_00134_DS_
                                           _00132_DS_:
                                           ;	.line	97; "SSD.c"	current_ssd++;
000b63   1283     bcf     0x03, 0x5        	BANKSEL	_SSD_Update_current_ssd_65536_22
000b64   1703     bsf     0x03, 0x6        
000b65   0a94     incf    0x14, 0x1        	INCF	_SSD_Update_current_ssd_65536_22,F
                                           _00134_DS_:
                                           ;	.line	102; "SSD.c"	}
000b66   0008     return                   	RETURN	
                                           ; exit point of _SSD_Update

                                           ;***
                                           ;  pBlock Stats: dbName = C
                                           ;***
                                           ;has an exit
                                           ;functions called:
                                           ;   _GPIO_InitPort
                                           ;   _GPIO_SetPortState
                                           ;   _GPIO_InitPortPin
                                           ;   _GPIO_InitPortPin
                                           ;   _GPIO_InitPortPin
                                           ;   _GPIO_InitPortPin
                                           ;   _SSD_SetState
                                           ;   _SSD_SetSymbol
                                           ;   _GPIO_InitPort
                                           ;   _GPIO_SetPortState
                                           ;   _GPIO_InitPortPin
                                           ;   _GPIO_InitPortPin
                                           ;   _GPIO_InitPortPin
                                           ;   _GPIO_InitPortPin
                                           ;   _SSD_SetState
                                           ;   _SSD_SetSymbol
                                           ;8 compiler assigned registers:
                                           ;   r0x1024
                                           ;   STK00
                                           ;   r0x1025
                                           ;   STK01
                                           ;   r0x1026
                                           ;   r0x1027
                                           ;   r0x1028
                                           ;   r0x1029
                                           ;; Starting pCode block
                                           S_SSD__SSD_Init	code
                                           _SSD_Init:
                                           ; 2 exit points
                                           ;	.line	40; "SSD.c"	void SSD_Init(tSSD ssd, tSSD_State initial_state, tSSD_Symbol initial_symbol)
000a78   1283     bcf     0x03, 0x5        	BANKSEL	r0x1024
000a79   1303     bcf     0x03, 0x6        
000a7a   00ba     movwf   0x3a             	MOVWF	r0x1024
000a7b   087f     movf    0x7f, 0x0        	MOVF	STK00,W
000a7c   00bb     movwf   0x3b             	MOVWF	r0x1025
000a7d   087e     movf    0x7e, 0x0        	MOVF	STK01,W
000a7e   00bc     movwf   0x3c             	MOVWF	r0x1026
                                           ;	.line	43; "SSD.c"	GPIO_InitPort(SSD_data_PORT, GPIO_OUT);
000a7f   3000     movlw   0x00             	MOVLW	0x00
000a80   00ff     movwf   0x7f             	MOVWF	STK00
000a81   3003     movlw   0x03             	MOVLW	0x03
000a82   158a     bsf     0x0a, 0x3        	PAGESEL	_GPIO_InitPort
000a83   120a     bcf     0x0a, 0x4        
000a84   272d     call    0x072d           	CALL	_GPIO_InitPort
000a85   158a     bsf     0x0a, 0x3        	PAGESEL	$
000a86   120a     bcf     0x0a, 0x4        
                                           ;	.line	44; "SSD.c"	GPIO_SetPortState(SSD_data_PORT, ssd_data[initial_symbol]);
000a87   1283     bcf     0x03, 0x5        	BANKSEL	r0x1026
000a88   1303     bcf     0x03, 0x6        
000a89   083c     movf    0x3c, 0x0        	MOVF	r0x1026,W
000a8a   3eac     addlw   0xac             	ADDLW	(_ssd_data + 0)
000a8b   00bd     movwf   0x3d             	MOVWF	r0x1027
000a8c   3000     movlw   0x00             	MOVLW	high (_ssd_data + 0)
000a8d   1803     btfsc   0x03, 0x0        	BTFSC	STATUS,0
000a8e   3e01     addlw   0x01             	ADDLW	0x01
000a8f   00be     movwf   0x3e             	MOVWF	r0x1028
000a90   083d     movf    0x3d, 0x0        	MOVF	r0x1027,W
000a91   1283     bcf     0x03, 0x5        	BANKSEL	FSR
000a92   1303     bcf     0x03, 0x6        
000a93   0084     movwf   0x04             	MOVWF	FSR
000a94   1383     bcf     0x03, 0x7        	BCF	STATUS,7
000a95   1283     bcf     0x03, 0x5        	BANKSEL	r0x1028
000a96   1303     bcf     0x03, 0x6        
000a97   183e     btfsc   0x3e, 0x0        	BTFSC	r0x1028,0
000a98   1783     bsf     0x03, 0x7        	BSF	STATUS,7
000a99   1283     bcf     0x03, 0x5        	BANKSEL	INDF
000a9a   1303     bcf     0x03, 0x6        
000a9b   0800     movf    0x00, 0x0        	MOVF	INDF,W
                                           ;;1	MOVWF	r0x1029
000a9c   00ff     movwf   0x7f             	MOVWF	STK00
000a9d   3003     movlw   0x03             	MOVLW	0x03
000a9e   158a     bsf     0x0a, 0x3        	PAGESEL	_GPIO_SetPortState
000a9f   120a     bcf     0x0a, 0x4        
000aa0   2626     call    0x0626           	CALL	_GPIO_SetPortState
000aa1   158a     bsf     0x0a, 0x3        	PAGESEL	$
000aa2   120a     bcf     0x0a, 0x4        
                                           ;;swapping arguments (AOP_TYPEs 1/2)
                                           ;;unsigned compare: left >= lit(0x4=4), size=1
                                           ;	.line	47; "SSD.c"	switch(ssd)
000aa3   3004     movlw   0x04             	MOVLW	0x04
000aa4   1283     bcf     0x03, 0x5        	BANKSEL	r0x1024
000aa5   1303     bcf     0x03, 0x6        
000aa6   023a     subwf   0x3a, 0x0        	SUBWF	r0x1024,W
000aa7   1803     btfsc   0x03, 0x0        	BTFSC	STATUS,0
000aa8   2ae6     goto    0x02e6           	GOTO	_00118_DS_
                                           ;;genSkipc:3307: created from rifx:00000000047A57B0
000aa9   300a     movlw   0x0a             	MOVLW	HIGH(_00126_DS_)
000aaa   1283     bcf     0x03, 0x5        	BANKSEL	PCLATH
000aab   1303     bcf     0x03, 0x6        
000aac   008a     movwf   0x0a             	MOVWF	PCLATH
000aad   30b7     movlw   0xb7             	MOVLW	_00126_DS_
000aae   1283     bcf     0x03, 0x5        	BANKSEL	r0x1024
000aaf   1303     bcf     0x03, 0x6        
000ab0   073a     addwf   0x3a, 0x0        	ADDWF	r0x1024,W
000ab1   1c03     btfss   0x03, 0x0        	BTFSS	STATUS,0
000ab2   2ab6     goto    0x02b6           	GOTO	_00003_DS_
000ab3   1283     bcf     0x03, 0x5        	BANKSEL	PCLATH
000ab4   1303     bcf     0x03, 0x6        
000ab5   0a8a     incf    0x0a, 0x1        	INCF	PCLATH,F
                                           _00003_DS_:
000ab6   0082     movwf   0x02             	MOVWF	PCL
                                           _00126_DS_:
000ab7   2abb     goto    0x02bb           	GOTO	_00113_DS_
000ab8   2ac6     goto    0x02c6           	GOTO	_00114_DS_
000ab9   2ad1     goto    0x02d1           	GOTO	_00115_DS_
000aba   2adc     goto    0x02dc           	GOTO	_00116_DS_
                                           _00113_DS_:
                                           ;	.line	50; "SSD.c"	GPIO_InitPortPin(PORT_A, SSD_L_PIN, GPIO_OUT);
000abb   3000     movlw   0x00             	MOVLW	0x00
000abc   00fe     movwf   0x7e             	MOVWF	STK01
000abd   3002     movlw   0x02             	MOVLW	0x02
000abe   00ff     movwf   0x7f             	MOVWF	STK00
000abf   3000     movlw   0x00             	MOVLW	0x00
000ac0   118a     bcf     0x0a, 0x3        	PAGESEL	_GPIO_InitPortPin
000ac1   120a     bcf     0x0a, 0x4        
000ac2   235a     call    0x035a           	CALL	_GPIO_InitPortPin
000ac3   158a     bsf     0x0a, 0x3        	PAGESEL	$
000ac4   120a     bcf     0x0a, 0x4        
                                           ;	.line	51; "SSD.c"	break;
000ac5   2ae6     goto    0x02e6           	GOTO	_00118_DS_
                                           _00114_DS_:
                                           ;	.line	53; "SSD.c"	GPIO_InitPortPin(PORT_A, SSD_ML_PIN, GPIO_OUT);
000ac6   3000     movlw   0x00             	MOVLW	0x00
000ac7   00fe     movwf   0x7e             	MOVWF	STK01
000ac8   3003     movlw   0x03             	MOVLW	0x03
000ac9   00ff     movwf   0x7f             	MOVWF	STK00
000aca   3000     movlw   0x00             	MOVLW	0x00
000acb   118a     bcf     0x0a, 0x3        	PAGESEL	_GPIO_InitPortPin
000acc   120a     bcf     0x0a, 0x4        
000acd   235a     call    0x035a           	CALL	_GPIO_InitPortPin
000ace   158a     bsf     0x0a, 0x3        	PAGESEL	$
000acf   120a     bcf     0x0a, 0x4        
                                           ;	.line	54; "SSD.c"	break;
000ad0   2ae6     goto    0x02e6           	GOTO	_00118_DS_
                                           _00115_DS_:
                                           ;	.line	56; "SSD.c"	GPIO_InitPortPin(PORT_A, SSD_MR_PIN, GPIO_OUT);
000ad1   3000     movlw   0x00             	MOVLW	0x00
000ad2   00fe     movwf   0x7e             	MOVWF	STK01
000ad3   3004     movlw   0x04             	MOVLW	0x04
000ad4   00ff     movwf   0x7f             	MOVWF	STK00
000ad5   3000     movlw   0x00             	MOVLW	0x00
000ad6   118a     bcf     0x0a, 0x3        	PAGESEL	_GPIO_InitPortPin
000ad7   120a     bcf     0x0a, 0x4        
000ad8   235a     call    0x035a           	CALL	_GPIO_InitPortPin
000ad9   158a     bsf     0x0a, 0x3        	PAGESEL	$
000ada   120a     bcf     0x0a, 0x4        
                                           ;	.line	57; "SSD.c"	break;
000adb   2ae6     goto    0x02e6           	GOTO	_00118_DS_
                                           _00116_DS_:
                                           ;	.line	59; "SSD.c"	GPIO_InitPortPin(PORT_A, SSD_R_PIN, GPIO_OUT);
000adc   3000     movlw   0x00             	MOVLW	0x00
000add   00fe     movwf   0x7e             	MOVWF	STK01
000ade   3005     movlw   0x05             	MOVLW	0x05
000adf   00ff     movwf   0x7f             	MOVWF	STK00
000ae0   3000     movlw   0x00             	MOVLW	0x00
000ae1   118a     bcf     0x0a, 0x3        	PAGESEL	_GPIO_InitPortPin
000ae2   120a     bcf     0x0a, 0x4        
000ae3   235a     call    0x035a           	CALL	_GPIO_InitPortPin
000ae4   158a     bsf     0x0a, 0x3        	PAGESEL	$
000ae5   120a     bcf     0x0a, 0x4        
                                           _00118_DS_:
                                           ;	.line	67; "SSD.c"	SSD_SetState(ssd, initial_state);
000ae6   1283     bcf     0x03, 0x5        	BANKSEL	r0x1025
000ae7   1303     bcf     0x03, 0x6        
000ae8   083b     movf    0x3b, 0x0        	MOVF	r0x1025,W
000ae9   00ff     movwf   0x7f             	MOVWF	STK00
000aea   083a     movf    0x3a, 0x0        	MOVF	r0x1024,W
000aeb   158a     bsf     0x0a, 0x3        	PAGESEL	_SSD_SetState
000aec   120a     bcf     0x0a, 0x4        
000aed   24f4     call    0x04f4           	CALL	_SSD_SetState
000aee   158a     bsf     0x0a, 0x3        	PAGESEL	$
000aef   120a     bcf     0x0a, 0x4        
                                           ;	.line	70; "SSD.c"	SSD_SetSymbol(ssd, initial_symbol);
000af0   1283     bcf     0x03, 0x5        	BANKSEL	r0x1026
000af1   1303     bcf     0x03, 0x6        
000af2   083c     movf    0x3c, 0x0        	MOVF	r0x1026,W
000af3   00ff     movwf   0x7f             	MOVWF	STK00
000af4   083a     movf    0x3a, 0x0        	MOVF	r0x1024,W
000af5   158a     bsf     0x0a, 0x3        	PAGESEL	_SSD_SetSymbol
000af6   120a     bcf     0x0a, 0x4        
000af7   2747     call    0x0747           	CALL	_SSD_SetSymbol
000af8   158a     bsf     0x0a, 0x3        	PAGESEL	$
000af9   120a     bcf     0x0a, 0x4        
                                           ;	.line	72; "SSD.c"	}
000afa   0008     return                   	RETURN	
                                           ; exit point of _SSD_Init

                                           ;***
                                           ;  pBlock Stats: dbName = C
                                           ;***
                                           ;has an exit
                                           ;; Starting pCode block
                                           S_SSD__toggle_dot_state	code
                                           _toggle_dot_state:
                                           ; 2 exit points
                                           ;	.line	12; "SSD.c"	if(dot_state ==0)
000f9b   1283     bcf     0x03, 0x5        	BANKSEL	_dot_state
000f9c   1703     bsf     0x03, 0x6        
000f9d   0813     movf    0x13, 0x0        	MOVF	_dot_state,W
000f9e   1d03     btfss   0x03, 0x2        	BTFSS	STATUS,2
000f9f   2fa3     goto    0x07a3           	GOTO	_00106_DS_
                                           ;	.line	14; "SSD.c"	dot_state = 1;
000fa0   3001     movlw   0x01             	MOVLW	0x01
000fa1   0093     movwf   0x13             	MOVWF	_dot_state
000fa2   2fa6     goto    0x07a6           	GOTO	_00108_DS_
                                           _00106_DS_:
                                           ;	.line	17; "SSD.c"	dot_state = 0;
000fa3   1283     bcf     0x03, 0x5        	BANKSEL	_dot_state
000fa4   1703     bsf     0x03, 0x6        
000fa5   0193     clrf    0x13             	CLRF	_dot_state
                                           _00108_DS_:
                                           ;	.line	20; "SSD.c"	}
000fa6   0008     return                   	RETURN	
                                           ; exit point of _toggle_dot_state


                                           ;	code size estimation:
                                           ;	  411+  156 =   567 instructions ( 1446 byte)

                                           	end
                                           ;--------------------------------------------------------
                                           ; File Created by SDCC : free open source ANSI-C Compiler
                                           ; Version 4.0.0 #11528 (MINGW64)
                                           ;--------------------------------------------------------
                                           ; PIC port for the 14-bit core
                                           ;--------------------------------------------------------
                                           ;	.file	"timr0.c"
                                           	list	p=16f877a
                                           	radix dec
                                           	include "p16f877a.inc"
                                                   LIST

                                           ;==========================================================================
                                           ; Build date : Oct 21 2015
                                           ;  MPASM PIC16F877A processor include
                                           ; 
                                           ;  (c) Copyright 1999-2015 Microchip Technology, All rights reserved
                                           ;==========================================================================

                                                   NOLIST
                                           ;--------------------------------------------------------
                                           ; external declarations
                                           ;--------------------------------------------------------
                                           	extern	_get_mode
                                           	extern	_DIG_CLK_update
                                           	extern	_hour_update
                                           	extern	_minutes_update
                                           	extern	_SSD_Update_2
                                           	extern	_SSD_Update
                                           	extern	_PB_Update
                                           	extern	_TMR0
                                           	extern	_OPTION_REGbits
                                           	extern	_INTCONbits

                                           	extern PSAVE
                                           	extern SSAVE
                                           	extern WSAVE
                                           	extern STK12
                                           	extern STK11
                                           	extern STK10
                                           	extern STK09
                                           	extern STK08
                                           	extern STK07
                                           	extern STK06
                                           	extern STK05
                                           	extern STK04
                                           	extern STK03
                                           	extern STK02
                                           	extern STK01
                                           	extern STK00
                                           ;--------------------------------------------------------
                                           ; global declarations
                                           ;--------------------------------------------------------
                                           	global	_TMR0_Init
                                           	global	_TMR0_Start
                                           	global	_TMR0_Update

                                           ;--------------------------------------------------------
                                           ; global definitions
                                           ;--------------------------------------------------------
                                           ;--------------------------------------------------------
                                           ; absolute symbol definitions
                                           ;--------------------------------------------------------
                                           ;--------------------------------------------------------
                                           ; compiler-defined variables
                                           ;--------------------------------------------------------
                                           UDL_timr0_0	udata
                                           r0x1002	res	1
                                           ___sdcc_saved_fsr	res	1
                                           ;--------------------------------------------------------
                                           ; initialized data
                                           ;--------------------------------------------------------

                                           IDD_timr0_0	idata
                                           _TMR0_Update_counter_65536_34
                                           	db	0x00	; 0

                                           ;--------------------------------------------------------
                                           ; initialized absolute data
                                           ;--------------------------------------------------------
                                           ;--------------------------------------------------------
                                           ; overlayable items in internal ram 
                                           ;--------------------------------------------------------
                                           ;	udata_ovr
                                           ;--------------------------------------------------------
                                           ; interrupt and initialization code
                                           ;--------------------------------------------------------
                                           c_interrupt	code	0x0004
                                           __sdcc_interrupt:
                                           ;***
                                           ;  pBlock Stats: dbName = I
                                           ;***
                                           ;functions called:
                                           ;   _PB_Update
                                           ;   _DIG_CLK_update
                                           ;   _minutes_update
                                           ;   _hour_update
                                           ;   _get_mode
                                           ;   _SSD_Update_2
                                           ;   _SSD_Update
                                           ;   _PB_Update
                                           ;   _DIG_CLK_update
                                           ;   _minutes_update
                                           ;   _hour_update
                                           ;   _get_mode
                                           ;   _SSD_Update_2
                                           ;   _SSD_Update
                                           ;1 compiler assigned register :
                                           ;   r0x1002
                                           ;; Starting pCode block
                                           _TMR0_Update:
                                           ; 0 exit points
                                           ;	.line	26; "timr0.c"	void TMR0_Update(void) __interrupt 0 // @ 5 ms
000004   00f2     movwf   0x72             	MOVWF	WSAVE
000005   0e03     swapf   0x03, 0x0        	SWAPF	STATUS,W
000006   0183     clrf    0x03             	CLRF	STATUS
000007   00f1     movwf   0x71             	MOVWF	SSAVE
000008   080a     movf    0x0a, 0x0        	MOVF	PCLATH,W
000009   018a     clrf    0x0a             	CLRF	PCLATH
00000a   00f0     movwf   0x70             	MOVWF	PSAVE
00000b   0804     movf    0x04, 0x0        	MOVF	FSR,W
00000c   1683     bsf     0x03, 0x5        	BANKSEL	___sdcc_saved_fsr
00000d   1303     bcf     0x03, 0x6        
00000e   00e7     movwf   0x67             	MOVWF	___sdcc_saved_fsr
                                           ;	.line	32; "timr0.c"	counter++;
00000f   1283     bcf     0x03, 0x5        	BANKSEL	_TMR0_Update_counter_65536_34
000010   1703     bsf     0x03, 0x6        
000011   0a96     incf    0x16, 0x1        	INCF	_TMR0_Update_counter_65536_34,F
                                           ;	.line	35; "timr0.c"	if (counter == 5)
000012   0816     movf    0x16, 0x0        	MOVF	_TMR0_Update_counter_65536_34,W
000013   3a05     xorlw   0x05             	XORLW	0x05
000014   1d03     btfss   0x03, 0x2        	BTFSS	STATUS,2
000015   282d     goto    0x002d           	GOTO	_00114_DS_
                                           ;	.line	37; "timr0.c"	PB_Update();    // read push buttons --> 0 & 2 ---> then update samples
000016   118a     bcf     0x0a, 0x3        	PAGESEL	_PB_Update
000017   120a     bcf     0x0a, 0x4        
000018   2056     call    0x0056           	CALL	_PB_Update
000019   118a     bcf     0x0a, 0x3        	PAGESEL	$
00001a   120a     bcf     0x0a, 0x4        
                                           ;	.line	38; "timr0.c"	DIG_CLK_update();
00001b   158a     bsf     0x0a, 0x3        	PAGESEL	_DIG_CLK_update
00001c   120a     bcf     0x0a, 0x4        
00001d   25dd     call    0x05dd           	CALL	_DIG_CLK_update
00001e   118a     bcf     0x0a, 0x3        	PAGESEL	$
00001f   120a     bcf     0x0a, 0x4        
                                           ;	.line	39; "timr0.c"	minutes_update();
000020   118a     bcf     0x0a, 0x3        	PAGESEL	_minutes_update
000021   120a     bcf     0x0a, 0x4        
000022   26e5     call    0x06e5           	CALL	_minutes_update
000023   118a     bcf     0x0a, 0x3        	PAGESEL	$
000024   120a     bcf     0x0a, 0x4        
                                           ;	.line	40; "timr0.c"	hour_update();
000025   118a     bcf     0x0a, 0x3        	PAGESEL	_hour_update
000026   120a     bcf     0x0a, 0x4        
000027   249f     call    0x049f           	CALL	_hour_update
000028   118a     bcf     0x0a, 0x3        	PAGESEL	$
000029   120a     bcf     0x0a, 0x4        
                                           ;	.line	41; "timr0.c"	counter = 0;
00002a   1283     bcf     0x03, 0x5        	BANKSEL	_TMR0_Update_counter_65536_34
00002b   1703     bsf     0x03, 0x6        
00002c   0196     clrf    0x16             	CLRF	_TMR0_Update_counter_65536_34
                                           _00114_DS_:
                                           ;	.line	44; "timr0.c"	if(get_mode() == normal)
00002d   158a     bsf     0x0a, 0x3        	PAGESEL	_get_mode
00002e   120a     bcf     0x0a, 0x4        
00002f   27c3     call    0x07c3           	CALL	_get_mode
000030   118a     bcf     0x0a, 0x3        	PAGESEL	$
000031   120a     bcf     0x0a, 0x4        
000032   1683     bsf     0x03, 0x5        	BANKSEL	r0x1002
000033   1303     bcf     0x03, 0x6        
000034   00e6     movwf   0x66             	MOVWF	r0x1002
000035   0866     movf    0x66, 0x0        	MOVF	r0x1002,W
000036   1d03     btfss   0x03, 0x2        	BTFSS	STATUS,2
000037   283e     goto    0x003e           	GOTO	_00116_DS_
                                           ;	.line	46; "timr0.c"	SSD_Update_2();
000038   158a     bsf     0x0a, 0x3        	PAGESEL	_SSD_Update_2
000039   120a     bcf     0x0a, 0x4        
00003a   2000     call    0x0000           	CALL	_SSD_Update_2
00003b   118a     bcf     0x0a, 0x3        	PAGESEL	$
00003c   120a     bcf     0x0a, 0x4        
00003d   2843     goto    0x0043           	GOTO	_00117_DS_
                                           _00116_DS_:
                                           ;	.line	49; "timr0.c"	SSD_Update();   // put the output module task first
00003e   158a     bsf     0x0a, 0x3        	PAGESEL	_SSD_Update
00003f   120a     bcf     0x0a, 0x4        
000040   22fb     call    0x02fb           	CALL	_SSD_Update
000041   118a     bcf     0x0a, 0x3        	PAGESEL	$
000042   120a     bcf     0x0a, 0x4        
                                           _00117_DS_:
                                           ;	.line	56; "timr0.c"	TMR0_CLEAR_FLAG();
000043   1283     bcf     0x03, 0x5        	BANKSEL	_INTCONbits
000044   1303     bcf     0x03, 0x6        
000045   110b     bcf     0x0b, 0x2        	BCF	_INTCONbits,2
                                           ;	.line	57; "timr0.c"	TMR0_SET_TIME_MS(TMR0_TICK_MS);
000046   30d8     movlw   0xd8             	MOVLW	0xd8
000047   0081     movwf   0x01             	MOVWF	_TMR0
                                           ;	.line	60; "timr0.c"	}
000048   1683     bsf     0x03, 0x5        	BANKSEL	___sdcc_saved_fsr
000049   1303     bcf     0x03, 0x6        
00004a   0867     movf    0x67, 0x0        	MOVF	___sdcc_saved_fsr,W
00004b   1283     bcf     0x03, 0x5        	BANKSEL	FSR
00004c   1303     bcf     0x03, 0x6        
00004d   0084     movwf   0x04             	MOVWF	FSR
00004e   0870     movf    0x70, 0x0        	MOVF	PSAVE,W
00004f   008a     movwf   0x0a             	MOVWF	PCLATH
000050   0183     clrf    0x03             	CLRF	STATUS
000051   0e71     swapf   0x71, 0x0        	SWAPF	SSAVE,W
000052   0083     movwf   0x03             	MOVWF	STATUS
000053   0ef2     swapf   0x72, 0x1        	SWAPF	WSAVE,F
000054   0e72     swapf   0x72, 0x0        	SWAPF	WSAVE,W
                                           END_OF_INTERRUPT:
000055   0009     retfie                   	RETFIE	

                                           ;--------------------------------------------------------
                                           ; code
                                           ;--------------------------------------------------------
                                           code_timr0	code
                                           ;***
                                           ;  pBlock Stats: dbName = C
                                           ;***
                                           ;has an exit
                                           ;; Starting pCode block
                                           S_timr0__TMR0_Start	code
                                           _TMR0_Start:
                                           ; 2 exit points
                                           ;	.line	19; "timr0.c"	TMR0_SET_INT_STATE(1);
000fb2   1283     bcf     0x03, 0x5        	BANKSEL	_INTCONbits
000fb3   1303     bcf     0x03, 0x6        
000fb4   168b     bsf     0x0b, 0x5        	BSF	_INTCONbits,5
                                           ;	.line	20; "timr0.c"	GIE = 1;
000fb5   178b     bsf     0x0b, 0x7        	BSF	_INTCONbits,7
                                           ;	.line	21; "timr0.c"	TMR0_SELECT_CLOCK_SOURCE(0); // Internal oscillator
000fb6   1683     bsf     0x03, 0x5        	BANKSEL	_OPTION_REGbits
000fb7   1303     bcf     0x03, 0x6        
000fb8   1281     bcf     0x01, 0x5        	BCF	_OPTION_REGbits,5
                                           ;	.line	22; "timr0.c"	TMR0_SET_STATE(0);          // TMR0 is on
000fb9   1281     bcf     0x01, 0x5        	BCF	_OPTION_REGbits,5
                                           ;	.line	23; "timr0.c"	}
000fba   0008     return                   	RETURN	
                                           ; exit point of _TMR0_Start

                                           ;***
                                           ;  pBlock Stats: dbName = C
                                           ;***
                                           ;has an exit
                                           ;; Starting pCode block
                                           S_timr0__TMR0_Init	code
                                           _TMR0_Init:
                                           ; 2 exit points
                                           ;	.line	11; "timr0.c"	TMR0_SET_STATE(1);          // TMR0 is off
000fbb   1683     bsf     0x03, 0x5        	BANKSEL	_OPTION_REGbits
000fbc   1303     bcf     0x03, 0x6        
000fbd   1681     bsf     0x01, 0x5        	BSF	_OPTION_REGbits,5
                                           ;	.line	12; "timr0.c"	TMR0_SET_PRE_SCALER(7);     // N = 256
000fbe   1181     bcf     0x01, 0x3        	BCF	_OPTION_REGbits,3
000fbf   1401     bsf     0x01, 0x0        	BSF	_OPTION_REGbits,0
000fc0   1481     bsf     0x01, 0x1        	BSF	_OPTION_REGbits,1
000fc1   1501     bsf     0x01, 0x2        	BSF	_OPTION_REGbits,2
                                           ;	.line	14; "timr0.c"	}
000fc2   0008     return                   	RETURN	
                                           ; exit point of _TMR0_Init


                                           ;	code size estimation:
                                           ;	   51+   24 =    75 instructions (  198 byte)

                                           	end
